(lp0
(lp1
F-68.8099594116
aF-172.139984131
aF2992.0111768837296
aF1635.1189272108945
aa(lp2
F-68.8065795898
aF-172.139678955
aF2992.0145567055297
aF1635.1192323868945
aa(lp3
F-68.8084487915
aF-172.141189575
aF2992.01268750383
aF1635.1177217668944
aa(lp4
F-68.8093032837
aF-172.140151978
aF2992.0118330116297
aF1635.1187593638945
aa(lp5
F-68.8087234497
aF-172.140319824
aF2992.0124128456296
aF1635.1185915178944
aa(lp6
F-68.8096694946
aF-172.140548706
aF2992.01146680073
aF1635.1183626358943
aa(lp7
F-68.8103408813
aF-172.14112854
aF2992.01079541403
aF1635.1177828018945
aa(lp8
F-68.8093490601
aF-172.13961792
aF2992.01178723523
aF1635.1192934218943
aa(lp9
F-68.8089523315
aF-172.140304565
aF2992.0121839638296
aF1635.1186067768945
aa(lp10
F-68.8093643188
aF-172.139984131
aF2992.01177197653
aF1635.1189272108945
aa(lp11
F-68.8091278076
aF-172.140304565
aF2992.01200848773
aF1635.1186067768945
aa(lp12
F-68.8105392456
aF-172.140960693
aF2992.0105970497298
aF1635.1179506488943
aa(lp13
F-68.8096847534
aF-172.140579224
aF2992.01145154193
aF1635.1183321178944
aa(lp14
F-68.8099136353
aF-172.140258789
aF2992.01122266003
aF1635.1186525528944
aa(lp15
F-68.8093261719
aF-172.140594482
aF2992.0118101234298
aF1635.1183168598943
aa(lp16
F-68.8110427856
aF-172.141052246
aF2992.01009350973
aF1635.1178590958943
aa(lp17
F-68.8095474243
aF-172.14050293
aF2992.0115888710297
aF1635.1184084118945
aa(lp18
F-68.8089599609
aF-172.139846802
aF2992.0121763344296
aF1635.1190645398945
aa(lp19
F-68.8095397949
aF-172.140029907
aF2992.0115965004297
aF1635.1188814348943
aa(lp20
F-68.8106994629
aF-172.140411377
aF2992.0104368324296
aF1635.1184999648945
aa(lp21
F-68.8080215454
aF-172.13949585
aF2992.0131147499296
aF1635.1194154918944
aa(lp22
F-68.7965698242
aF-172.13760376
aF2992.0245664711297
aF1635.1213075818944
aa(lp23
F-68.7961502075
aF-172.138809204
aF2992.02498608783
aF1635.1201021378945
aa(lp24
F-68.7985076904
aF-172.13949585
aF2992.0226286049297
aF1635.1194154918944
aa(lp25
F-68.7959899902
aF-172.138931274
aF2992.02514630513
aF1635.1199800678944
aa(lp26
F-68.7961120605
aF-172.138565063
aF2992.0250242348297
aF1635.1203462788944
aa(lp27
F-68.7939300537
aF-172.138031006
aF2992.0272062416298
aF1635.1208803358945
aa(lp28
F-68.7959976196
aF-172.137588501
aF2992.02513867573
aF1635.1213228408944
aa(lp29
F-68.7973632812
aF-172.138702393
aF2992.02377301413
aF1635.1202089488945
aa(lp30
F-68.7970962524
aF-172.138458252
aF2992.0240400429298
aF1635.1204530898945
aa(lp31
F-68.7966461182
aF-172.139175415
aF2992.02449017713
aF1635.1197359268945
aa(lp32
F-68.7975006104
aF-172.138809204
aF2992.02363568493
aF1635.1201021378945
aa(lp33
F-68.7966384888
aF-172.138687134
aF2992.02449780653
aF1635.1202242078944
aa(lp34
F-68.7972717285
aF-172.138671875
aF2992.0238645668296
aF1635.1202394668944
aa(lp35
F-68.7973632812
aF-172.138290405
aF2992.02377301413
aF1635.1206209368945
aa(lp36
F-68.7972106934
aF-172.138717651
aF2992.02392560193
aF1635.1201936908944
aa(lp37
F-68.7975769043
aF-172.138168335
aF2992.0235593910297
aF1635.1207430068944
aa(lp38
F-68.7978897095
aF-172.139190674
aF2992.02324658583
aF1635.1197206678944
aa(lp39
F-68.7967910767
aF-172.138458252
aF2992.0243452186296
aF1635.1204530898945
aa(lp40
F-68.7971420288
aF-172.138214111
aF2992.02399426653
aF1635.1206972308944
aa(lp41
F-68.7980804443
aF-172.134674072
aF2992.0230558510298
aF1635.1242372698944
aa(lp42
F-68.8108062744
aF-172.126861572
aF2992.01033002093
aF1635.1320497698944
aa(lp43
F-68.8364257812
aF-172.111099243
aF2991.98471051413
aF1635.1478120988945
aa(lp44
F-68.8738021851
aF-172.086181641
aF2991.94733411023
aF1635.1727297008945
aa(lp45
F-68.9047546387
aF-172.063842773
aF2991.9163816566297
aF1635.1950685688944
aa(lp46
F-68.9654998779
aF-172.013549805
aF2991.8556364174297
aF1635.2453615368945
aa(lp47
F-69.0312194824
aF-171.965057373
aF2991.7899168129297
aF1635.2938539688944
aa(lp48
F-69.0804595947
aF-171.924819946
aF2991.7406767006296
aF1635.3340913958943
aa(lp49
F-69.1594009399
aF-171.859268188
aF2991.6617353554298
aF1635.3996431538944
aa(lp50
F-69.2496032715
aF-171.783721924
aF2991.57153302383
aF1635.4751894178944
aa(lp51
F-69.3305511475
aF-171.713043213
aF2991.4905851478297
aF1635.5458681288944
aa(lp52
F-69.4135665894
aF-171.624694824
aF2991.4075697059297
aF1635.6342165178944
aa(lp53
F-69.5030593872
aF-171.517547607
aF2991.3180769081296
aF1635.7413637348943
aa(lp54
F-69.5890808105
aF-171.421585083
aF2991.2320554848297
aF1635.8373262588943
aa(lp55
F-69.6928329468
aF-171.300827026
aF2991.1283033485297
aF1635.9580843158944
aa(lp56
F-69.7972869873
aF-171.168701172
aF2991.0238493080296
aF1636.0902101698944
aa(lp57
F-69.8839569092
aF-171.038574219
aF2990.9371793861296
aF1636.2203371228943
aa(lp58
F-69.9918441772
aF-170.871383667
aF2990.8292921181296
aF1636.3875276748945
aa(lp59
F-70.0673522949
aF-170.754837036
aF2990.7537840004297
aF1636.5040743058944
aa(lp60
F-70.1752319336
aF-170.544128418
aF2990.6459043617297
aF1636.7147829238943
aa(lp61
F-70.2797241211
aF-170.31413269
aF2990.5414121742297
aF1636.9447786518945
aa(lp62
F-70.3901062012
aF-170.06829834
aF2990.4310300941297
aF1637.1906130018945
aa(lp63
F-70.4623565674
aF-169.846389771
aF2990.3587797279297
aF1637.4125215708943
aa(lp64
F-70.5358886719
aF-169.566131592
aF2990.2852476234298
aF1637.6927797498945
aa(lp65
F-70.5989532471
aF-169.317626953
aF2990.22218304823
aF1637.9412843888945
aa(lp66
F-70.6423721313
aF-168.999603271
aF2990.17876416403
aF1638.2593080708943
aa(lp67
F-70.6736526489
aF-168.724136353
aF2990.14748364643
aF1638.5347749888945
aa(lp68
F-70.7253570557
aF-168.365783691
aF2990.09577923963
aF1638.8931276508945
aa(lp69
F-70.7722320557
aF-167.972961426
aF2990.04890423963
aF1639.2859499158944
aa(lp70
F-70.7945022583
aF-167.70980835
aF2990.02663403703
aF1639.5491029918944
aa(lp71
F-70.7957229614
aF-167.195388794
aF2990.02541333393
aF1640.0635225478945
aa(lp72
F-70.7632598877
aF-166.724380493
aF2990.05787640763
aF1640.5345308488945
aa(lp73
F-70.7336425781
aF-166.407974243
aF2990.08749371723
aF1640.8509370988945
aa(lp74
F-70.6372146606
aF-165.758483887
aF2990.18392163473
aF1641.5004274548944
aa(lp75
F-70.5549163818
aF-165.258041382
aF2990.2662199135298
aF1642.0008699598943
aa(lp76
F-70.4892959595
aF-164.925537109
aF2990.33184033583
aF1642.3333742328944
aa(lp77
F-70.3870162964
aF-164.43649292
aF2990.43411999893
aF1642.8224184218943
aa(lp78
F-70.2755584717
aF-163.876647949
aF2990.5455778236296
aF1643.3822633928944
aa(lp79
F-70.1533584595
aF-163.274902344
aF2990.66777783583
aF1643.9840089978943
aa(lp80
F-70.0261383057
aF-162.633300781
aF2990.79499798963
aF1644.6256105608945
aa(lp81
F-69.9110717773
aF-162.079605103
aF2990.9100645180297
aF1645.1793062388945
aa(lp82
F-69.780166626
aF-161.509994507
aF2991.0409696693296
aF1645.7489168348943
aa(lp83
F-69.6137313843
aF-160.771011353
aF2991.2074049110297
aF1646.4878999888945
aa(lp84
F-69.4320068359
aF-159.988388062
aF2991.3891294594296
aF1647.2705232798944
aa(lp85
F-69.2729187012
aF-159.298156738
aF2991.5482175941297
aF1647.9607546038944
aa(lp86
F-69.0728378296
aF-158.468917847
aF2991.74829846573
aF1648.7899934948944
aa(lp87
F-68.7953872681
aF-157.466308594
aF2992.0257490272297
aF1649.7926027478943
aa(lp88
F-68.5624313354
aF-156.736480713
aF2992.2587049599297
aF1650.5224306288944
aa(lp89
F-68.3158416748
aF-155.996429443
aF2992.5052946205296
aF1651.2624818988943
aa(lp90
F-67.9940261841
aF-155.101257324
aF2992.8271101112296
aF1652.1576540178944
aa(lp91
F-67.760887146
aF-154.488723755
aF2993.0602491493296
aF1652.7701875868945
aa(lp92
F-67.3825531006
aF-153.564666748
aF2993.4385831947297
aF1653.6942445938944
aa(lp93
F-66.9773483276
aF-152.641311646
aF2993.84378796773
aF1654.6175996958943
aa(lp94
F-66.5438613892
aF-151.70715332
aF2994.2772749061296
aF1655.5517580218943
aa(lp95
F-66.1562423706
aF-150.91746521
aF2994.6648939247298
aF1656.3414461318944
aa(lp96
F-65.6598968506
aF-149.963592529
aF2995.1612394447297
aF1657.2953188128945
aa(lp97
F-65.2273178101
aF-149.166549683
aF2995.59381848523
aF1658.0923616588943
aa(lp98
F-64.6844558716
aF-148.194320679
aF2996.1366804237296
aF1659.0645906628945
aa(lp99
F-64.1085281372
aF-147.210159302
aF2996.7126081581296
aF1660.0487520398945
aa(lp100
F-63.5214347839
aF-146.21635437
aF2997.2997015114297
aF1661.0425569718943
aa(lp101
F-63.1206741333
aF-145.542877197
aF2997.70046216203
aF1661.7160341448944
aa(lp102
F-62.4976119995
aF-144.495239258
aF2998.32352429583
aF1662.7636720838943
aa(lp103
F-61.8733787537
aF-143.446960449
aF2998.94775754163
aF1663.8119508928944
aa(lp104
F-61.3409347534
aF-142.560073853
aF2999.48020154193
aF1664.6988374888945
aa(lp105
F-60.5770072937
aF-141.324798584
aF3000.24412900163
aF1665.9341127578944
aa(lp106
F-60.00522995
aF-140.423538208
aF3000.81590634533
aF1666.8353731338943
aa(lp107
F-59.3092193604
aF-139.356079102
aF3001.5119169349296
aF1667.9028322398945
aa(lp108
F-58.5910263062
aF-138.268188477
aF3002.2301099891297
aF1668.9907228648945
aa(lp109
F-57.988368988
aF-137.361541748
aF3002.83276730733
aF1669.8973695938944
aa(lp110
F-57.2583122253
aF-136.271652222
aF3003.56282407003
aF1670.9872591198944
aa(lp111
F-56.6463623047
aF-135.347595215
aF3004.17477399063
aF1671.9113161268945
aa(lp112
F-55.9042816162
aF-134.23449707
aF3004.9168546791298
aF1673.0244142718943
aa(lp113
F-55.2849807739
aF-133.298110962
aF3005.53615552143
aF1673.9608003798944
aa(lp114
F-54.5358734131
aF-132.193557739
aF3006.2852628822297
aF1675.0653536028944
aa(lp115
F-53.9068260193
aF-131.287643433
aF3006.91431027603
aF1675.9712679088943
aa(lp116
F-53.1465873718
aF-130.202285767
aF3007.67454892353
aF1677.0566255748945
aa(lp117
F-52.3824272156
aF-129.107589722
aF3008.43870907973
aF1678.1513216198944
aa(lp118
F-51.8746376038
aF-128.393493652
aF3008.94649869153
aF1678.8654176898945
aa(lp119
F-50.9809799194
aF-127.155281067
aF3009.84015637593
aF1680.1036302748944
aa(lp120
F-50.4769325256
aF-126.460548401
aF3010.3442037697296
aF1680.7983629408943
aa(lp121
F-49.7211494446
aF-125.419532776
aF3011.0999868507297
aF1681.8393785658943
aa(lp122
F-48.9619979858
aF-124.375221252
aF3011.85913830953
aF1682.8836900898943
aa(lp123
F-48.326210022
aF-123.502555847
aF3012.49492627333
aF1683.7563554948945
aa(lp124
F-47.5632362366
aF-122.460456848
aF3013.25790005873
aF1684.7984544938945
aa(lp125
F-46.7997779846
aF-121.430488586
aF3014.0213583107297
aF1685.8284227558945
aa(lp126
F-46.1620140076
aF-120.587631226
aF3014.6591222877296
aF1686.6712801158944
aa(lp127
F-45.408115387
aF-119.581565857
aF3015.4130209083296
aF1687.6773454848944
aa(lp128
F-44.6636962891
aF-118.594825745
aF3016.15744000623
aF1688.6640855968944
aa(lp129
F-44.0555763245
aF-117.789115906
aF3016.7655599708296
aF1689.4697954358944
aa(lp130
F-44.8524208069
aF-114.071769714
aF3015.9687154884296
aF1693.1871416278943
aa(lp131
F-44.2685508728
aF-113.28427887
aF3016.55258542253
aF1693.9746324718944
aa(lp132
F-43.4245796204
aF-112.147239685
aF3017.39655667493
aF1695.1116716568945
aa(lp133
F-42.8197250366
aF-111.339179993
aF3018.0014112587296
aF1695.9197313488944
aa(lp134
F-42.200717926
aF-110.535385132
aF3018.62041836933
aF1696.7235262098943
aa(lp135
F-41.333065033
aF-109.437660217
aF3019.48807126233
aF1697.8212511248944
aa(lp136
F-40.853187561
aF-108.844192505
aF3019.9679487343296
aF1698.4147188368945
aa(lp137
F-40.1580657959
aF-107.978530884
aF3020.66307049943
aF1699.2803804578944
aa(lp138
F-39.4853973389
aF-107.108108521
aF3021.33573895643
aF1700.1508028208943
aa(lp139
F-38.9287719727
aF-106.38860321
aF3021.89236432263
aF1700.8703081318945
aa(lp140
F-38.2687339783
aF-105.536911011
aF3022.5524023170296
aF1701.7220003308944
aa(lp141
F-37.6206169128
aF-104.709770203
aF3023.20051938253
aF1702.5491411388944
aa(lp142
F-37.0901794434
aF-104.037651062
aF3023.73095685193
aF1703.2212602798945
aa(lp143
F-36.4718017578
aF-103.255195618
aF3024.3493345375296
aF1704.0037157238944
aa(lp144
F-35.9557189941
aF-102.60458374
aF3024.8654173012296
aF1704.6543276018945
aa(lp145
F-35.4477539062
aF-101.950370789
aF3025.37338238913
aF1705.3085405528943
aa(lp146
F-34.8451538086
aF-101.170051575
aF3025.9759824867297
aF1706.0888597668945
aa(lp147
F-34.3619155884
aF-100.530006409
aF3026.45922070693
aF1706.7289049328945
aa(lp148
F-33.8088569641
aF-99.7890167236
aF3027.01227933123
aF1707.4698946182943
aa(lp149
F-33.1866645813
aF-99.0245285034
aF3027.6344717140296
aF1708.2343828384944
aa(lp150
F-32.6772079468
aF-98.3712158203
aF3028.1439283485297
aF1708.8876955215944
aa(lp151
F-32.1121482849
aF-97.6271438599
aF3028.70898801043
aF1709.6317674819943
aa(lp152
F-31.6113395691
aF-96.9865036011
aF3029.20979672623
aF1710.2724077407945
aa(lp153
F-31.1044120789
aF-96.3377456665
aF3029.7167242164296
aF1710.9211656753944
aa(lp154
F-30.3718852997
aF-95.3980407715
aF3030.44925099563
aF1711.8608705703944
aa(lp155
F-29.9491825104
aF-94.853187561
aF3030.8719537849297
aF1712.4057237808945
aa(lp156
F-29.2983016968
aF-94.023979187
aF3031.5228345985297
aF1713.2349321548945
aa(lp157
F-28.5188293457
aF-93.0915145874
aF3032.30230694963
aF1714.1673967544943
aa(lp158
F-27.8321113586
aF-92.2348480225
aF3032.98902493673
aF1715.0240633193944
aa(lp159
F-27.2361469269
aF-91.5015487671
aF3033.58498936843
aF1715.7573625747943
aa(lp160
F-26.4629306793
aF-90.5687179565
aF3034.35820561603
aF1716.6901933853944
aa(lp161
F-25.9175109863
aF-89.9240875244
aF3034.90362530903
aF1717.3348238174945
aa(lp162
F-24.9312171936
aF-88.7624053955
aF3035.88991910173
aF1718.4965059463943
aa(lp163
F-24.1088352203
aF-87.7980804443
aF3036.7123010750297
aF1719.4608308975944
aa(lp164
F-23.5519790649
aF-87.1487960815
aF3037.2691572304298
aF1720.1101152603944
aa(lp165
F-22.7118186951
aF-86.1724395752
aF3038.1093176002296
aF1721.0864717666943
aa(lp166
F-21.8759822845
aF-85.2017059326
aF3038.94515401083
aF1722.0572054092945
aa(lp167
F-21.1592006683
aF-84.3888397217
aF3039.66193562703
aF1722.8700716201945
aa(lp168
F-20.262845993
aF-83.4008789062
aF3040.5582903023296
aF1723.8580324356944
aa(lp169
F-19.3698577881
aF-82.4357452393
aF3041.4512785072297
aF1724.8231661025943
aa(lp170
F-18.6072006226
aF-81.6255874634
aF3042.21393567273
aF1725.6333238784944
aa(lp171
F-17.6528301239
aF-80.624382019
aF3043.16830617143
aF1726.6345293228944
aa(lp172
F-17.0325298309
aF-79.9815826416
aF3043.78860646443
aF1727.2773287002944
aa(lp173
F-16.127948761
aF-79.0370330811
aF3044.69318753433
aF1728.2218782607945
aa(lp174
F-15.2115459442
aF-78.0980377197
aF3045.6095903511296
aF1729.1608736221945
aa(lp175
F-14.4427947998
aF-77.3100280762
aF3046.3783414955296
aF1729.9488832656943
aa(lp176
F-13.5145921707
aF-76.3568191528
aF3047.30654412463
aF1730.9020921890944
aa(lp177
F-12.5853252411
aF-75.4051132202
aF3048.23581105423
aF1731.8537981216944
aa(lp178
F-11.7977991104
aF-74.6125793457
aF3049.02333718493
aF1732.6463319961945
aa(lp179
F-10.8403539658
aF-73.6502304077
aF3049.9807823295296
aF1733.6086809341944
aa(lp180
F-10.026260376
aF-72.8422698975
aF3050.7948759193296
aF1734.4166414443944
aa(lp181
F-9.03790855408
aF-71.8673629761
aF3051.78322774125
aF1735.3915483657945
aa(lp182
F-8.21186828613
aF-71.0642242432
aF3052.6092680091997
aF1736.1946870986944
aa(lp183
F-7.38112640381
aF-70.2565078735
aF3053.44000989152
aF1737.0024034683945
aa(lp184
F-6.20365571976
aF-69.1224746704
aF3054.61748057557
aF1738.1364366714945
aa(lp185
F-5.54388999939
aF-68.4806213379
aF3055.2772462959397
aF1738.7782900039945
aa(lp186
F-4.54497432709
aF-67.5430145264
aF3056.2761619682396
aF1739.7158968154945
aa(lp187
F-3.55643010139
aF-66.6212463379
aF3057.2647061939397
aF1740.6376650039945
aa(lp188
F-2.7007188797
aF-65.8260726929
aF3058.1204174156296
aF1741.4328386489944
aa(lp189
F-1.66611492634
aF-64.868560791
aF3059.1550213689898
aF1742.3903505508945
aa(lp190
F-0.632049620152
aF-63.9209709167
aF3060.189086675178
aF1743.3379404251943
aa(lp191
F0.232025876641
aF-63.1358947754
aF3061.0531621719706
aF1744.1230165664945
aa(lp192
F1.26271283627
aF-62.182636261
aF3062.0838491316
aF1745.0762750808944
aa(lp193
F2.28089547157
aF-61.2350006104
aF3063.1020317669
aF1746.0239107314944
aa(lp194
F3.10080695152
aF-60.4561386108
aF3063.92194324685
aF1746.8027727310944
aa(lp195
F4.10575151443
aF-59.5151138306
aF3064.9268878097596
aF1747.7437975112944
aa(lp196
F4.78285694122
aF-58.8894767761
aF3065.6039932365497
aF1748.3694345657943
aa(lp197
F6.00717830658
aF-57.7601280212
aF3066.82831460191
aF1749.4987833206944
aa(lp198
F6.90484857559
aF-56.9318122864
aF3067.72598487092
aF1750.3270990554945
aa(lp199
F7.81046438217
aF-56.0977401733
aF3068.6316006774996
aF1751.1611711685944
aa(lp200
F8.88357257843
aF-55.1133995056
aF3069.70470887376
aF1752.1455118362944
aa(lp201
F9.76463127136
aF-54.308883667
aF3070.58576756669
aF1752.9500276748945
aa(lp202
F10.8544425964
aF-53.299861908
aF3071.67557889173
aF1753.9590494338945
aa(lp203
F11.7793188095
aF-52.435962677
aF3072.60045510483
aF1754.8229486648945
aa(lp204
F12.6776809692
aF-51.6022872925
aF3073.49881726453
aF1755.6566240493944
aa(lp205
F13.9402074814
aF-50.4412918091
aF3074.76134377673
aF1756.8176195327944
aa(lp206
F14.677447319
aF-49.7579803467
aF3075.4985836143296
aF1757.5009309951945
aa(lp207
F15.7437381744
aF-48.7685470581
aF3076.5648744697296
aF1758.4903642837944
aa(lp208
F16.8211307526
aF-47.7864837646
aF3077.6422670479296
aF1759.4724275772944
aa(lp209
F17.6798477173
aF-47.0039482117
aF3078.50098401263
aF1760.2549631301945
aa(lp210
F18.7356395721
aF-46.0540313721
aF3079.5567758674297
aF1761.2048799697943
aa(lp211
F19.816110611
aF-45.0983161926
aF3080.63724690633
aF1762.1605951492945
aa(lp212
F20.6873245239
aF-44.3261871338
aF3081.5084608192296
aF1762.9327242080944
aa(lp213
F21.7262611389
aF-43.3988685608
aF3082.54739743423
aF1763.8600427810943
aa(lp214
F22.6402416229
aF-42.6194915771
aF3083.4613779182296
aF1764.6394197647944
aa(lp215
F23.7294712067
aF-41.6963424683
aF3084.55060750203
aF1765.5625688735945
aa(lp216
F24.594083786
aF-40.9528236389
aF3085.4152200813296
aF1766.3060877029943
aa(lp217
F25.5752773285
aF-40.1192703247
aF3086.3964136238296
aF1767.1396410171944
aa(lp218
F26.5706157684
aF-39.2562942505
aF3087.3917520637297
aF1768.0026170913943
aa(lp219
F27.43957901
aF-38.5268058777
aF3088.26071530533
aF1768.7321054641943
aa(lp220
F28.30717659
aF-37.802986145
aF3089.1283128853297
aF1769.4559251968944
aa(lp221
F29.3198928833
aF-36.9409561157
aF3090.1410291786297
aF1770.3179552261945
aa(lp222
F30.2886199951
aF-36.1097869873
aF3091.1097562904297
aF1771.1491243545945
aa(lp223
F31.0777072906
aF-35.4492645264
aF3091.8988435859296
aF1771.8096468154945
aa(lp224
F31.9974117279
aF-34.6759910583
aF3092.8185480232296
aF1772.5829202835944
aa(lp225
F32.875038147
aF-33.9429206848
aF3093.6961744423297
aF1773.3159906570945
aa(lp226
F33.6258888245
aF-33.3172569275
aF3094.44702511983
aF1773.9416544143944
aa(lp227
F34.4999084473
aF-32.5825805664
aF3095.32104474263
aF1774.6763307754945
aa(lp228
F35.0582542419
aF-32.0973815918
aF3095.87939053723
aF1775.1615297500944
aa(lp229
F35.8939781189
aF-31.385181427
aF3096.71511441423
aF1775.8737299148945
aa(lp230
F36.6938247681
aF-30.7043056488
aF3097.51496106343
aF1776.5546056930943
aa(lp231
F37.3524360657
aF-30.1489200592
aF3098.17357236103
aF1777.1099912826944
aa(lp232
F38.1232452393
aF-29.5035152435
aF3098.94438153463
aF1777.7553960983944
aa(lp233
F38.8447952271
aF-28.8772640228
aF3099.6659315224297
aF1778.3816473190943
aa(lp234
F39.4691581726
aF-28.3633861542
aF3100.29029446793
aF1778.8955251876944
aa(lp235
F40.2090911865
aF-27.7535820007
aF3101.0302274818296
aF1779.5053293411945
aa(lp236
F40.7164306641
aF-27.3436374664
aF3101.5375669594296
aF1779.9152738754944
aa(lp237
F41.4621696472
aF-26.7424240112
aF3102.2833059425298
aF1780.5164873306944
aa(lp238
F42.3222007751
aF-26.0489292145
aF3103.14333707043
aF1781.2099821273944
aa(lp239
F42.8007888794
aF-25.6643066406
aF3103.6219251747298
aF1781.5946047012944
aa(lp240
F43.5076370239
aF-25.0992107391
aF3104.3287733192296
aF1782.1597006027944
aa(lp241
F44.2064743042
aF-24.5437660217
aF3105.02761059953
aF1782.7151453201943
aa(lp242
F44.7833900452
aF-24.0834846497
aF3105.60452634053
aF1783.1754266921944
aa(lp243
F45.4603729248
aF-23.5420970917
aF3106.28150922013
aF1783.7168142501944
aa(lp244
F46.1266822815
aF-22.9910964966
aF3106.94781857683
aF1784.2678148452944
aa(lp245
F46.6721191406
aF-22.5373287201
aF3107.4932554359298
aF1784.7215826217944
aa(lp246
F47.3008308411
aF-22.0033283234
aF3108.1219671364297
aF1785.2555830184945
aa(lp247
F47.9091300964
aF-21.4836826324
aF3108.73026639173
aF1785.7752287094945
aa(lp248
F48.5150413513
aF-21.0480422974
aF3109.33617764663
aF1786.2108690444945
aa(lp249
F49.2007293701
aF-20.5311794281
aF3110.0218656654297
aF1786.7277319137945
aa(lp250
F49.7398834229
aF-20.0997562408
aF3110.56101971823
aF1787.1591551010945
aa(lp251
F50.3679351807
aF-19.6207065582
aF3111.1890714760298
aF1787.6382047836944
aa(lp252
F51.041343689
aF-19.0978126526
aF3111.8624799843296
aF1788.1610986892945
aa(lp253
F51.5255279541
aF-18.7325267792
aF3112.34666424943
aF1788.5263845626944
aa(lp254
F52.2404251099
aF-18.1647129059
aF3113.06156140523
aF1789.0941984359945
aa(lp255
F52.9814186096
aF-17.589050293
aF3113.80255490493
aF1789.6698610488945
aa(lp256
F53.4705276489
aF-17.1953773499
aF3114.2916639442296
aF1790.0635339919945
aa(lp257
F54.1914253235
aF-16.6166191101
aF3115.0125616188297
aF1790.6422922317945
aa(lp258
F54.9153213501
aF-16.0292339325
aF3115.7364576454297
aF1791.2296774093945
aa(lp259
F55.5288047791
aF-15.525513649
aF3116.34994107443
aF1791.7333976928944
aa(lp260
F56.278263092
aF-14.9118461609
aF3117.09939938733
aF1792.3470651809944
aa(lp261
F57.0531082153
aF-14.2848005295
aF3117.87424451063
aF1792.9741108123944
aa(lp262
F57.6903495789
aF-13.7641143799
aF3118.51148587423
aF1793.4947969619943
aa(lp263
F58.4669418335
aF-13.1282653809
aF3119.28807812883
aF1794.1306459609943
aa(lp264
F59.1364593506
aF-12.5932559967
aF3119.95759564593
aF1794.6656553451944
aa(lp265
F59.9077720642
aF-11.9701776505
aF3120.7289083595297
aF1795.2887336913943
aa(lp266
F60.6756973267
aF-11.3562746048
aF3121.49683362203
aF1795.9026367370943
aa(lp267
F61.1867713928
aF-10.9493694305
aF3122.0079076881298
aF1796.3095419113945
aa(lp268
F61.9708023071
aF-10.3294782639
aF3122.7919386024296
aF1796.9294330779944
aa(lp269
F62.7503662109
aF-9.67272853851
aF3123.57150250623
aF1797.5861828033844
aa(lp270
F63.3598632812
aF-9.15110015869
aF3124.1809995765298
aF1798.1078111832044
aa(lp271
F64.0745239258
aF-8.51312351227
aF3124.8956602211297
aF1798.7457878296243
aa(lp272
F64.8003692627
aF-7.86130475998
aF3125.6215055580296
aF1799.3976065819145
aa(lp273
F65.3857955933
aF-7.27859449387
aF3126.2069318886297
aF1799.9803168480244
aa(lp274
F66.0377883911
aF-6.58561563492
aF3126.85892468643
aF1800.6732957069744
aa(lp275
F66.6824035645
aF-5.86451673508
aF3127.5035398598297
aF1801.3943946068143
aa(lp276
F67.2007446289
aF-5.22490978241
aF3128.0218809242297
aF1802.0340015594845
aa(lp277
F67.7706451416
aF-4.4577088356
aF3128.59178143693
aF1802.8012025062944
aa(lp278
F68.1418457031
aF-3.94519352913
aF3128.9629819984298
aF1803.3137178127645
aa(lp279
F68.6727294922
aF-3.15091109276
aF3129.49386578753
aF1804.1080002491344
aa(lp280
F69.170501709
aF-2.35638260841
aF3129.9916380043296
aF1804.9025287334844
aa(lp281
F69.5643234253
aF-1.70272314548
aF3130.3854597206296
aF1805.5561881964145
aa(lp282
F70.0402450562
aF-0.853576421738
aF3130.86138135153
aF1806.4053349201565
aa(lp283
F70.4871444702
aF-0.00257134018466
aF3131.3082807655296
aF1807.2563400017098
aa(lp284
F70.8492126465
aF0.714113593102
aF3131.6703489418296
aF1807.9730249349964
aa(lp285
F71.2885437012
aF1.57470858097
aF3132.10967999653
aF1808.8336199228645
aa(lp286
F71.5979690552
aF2.16250896454
aF3132.4191053505297
aF1809.4214203064344
aa(lp287
F72.1390991211
aF3.17975282669
aF3132.96023541643
aF1810.4386641685844
aa(lp288
F72.5376586914
aF3.90646243095
aF3133.3587949867297
aF1811.1653737728443
aa(lp289
F72.9477539062
aF4.63323688507
aF3133.7688902015298
aF1811.8921482269643
aa(lp290
F73.4588928223
aF5.51080751419
aF3134.28002911763
aF1812.7697188560844
aa(lp291
F73.9063796997
aF6.23767518997
aF3134.72751599503
aF1813.4965865318645
aa(lp292
F74.4657058716
aF7.0936498642
aF3135.28684216693
aF1814.3525612060944
aa(lp293
F75.0830154419
aF7.95583581924
aF3135.9041517372298
aF1815.2147471611345
aa(lp294
F75.7564468384
aF8.80694675446
aF3136.5775831337296
aF1816.0658580963545
aa(lp295
F76.3990707397
aF9.54974937439
aF3137.22020703503
aF1816.8086607162845
aa(lp296
F77.148109436
aF10.4090385437
aF3137.96924573133
aF1817.6679498855945
aa(lp297
F77.5840530396
aF10.9445056915
aF3138.4051893349297
aF1818.2034170333943
aa(lp298
F78.2413711548
aF11.6831951141
aF3139.06250745013
aF1818.9421064559945
aa(lp299
F78.8660202026
aF12.4170942307
aF3139.6871564979297
aF1819.6760055725945
aa(lp300
F79.485244751
aF12.9843177795
aF3140.30638104633
aF1820.2432291213945
aa(lp301
F80.3474273682
aF13.7381534576
aF3141.1685636635298
aF1820.9970647994944
aa(lp302
F81.302696228
aF14.4361782074
aF3142.12383252333
aF1821.6950895492944
aa(lp303
F82.130027771
aF14.9540939331
aF3142.95116406633
aF1822.2130052749944
aa(lp304
F83.2069854736
aF15.5097970963
aF3144.02812176893
aF1822.7687084381944
aa(lp305
F84.3071746826
aF16.0229358673
aF3145.1283109779297
aF1823.2818472091944
aa(lp306
F85.1794281006
aF16.3520317078
aF3146.00056439593
aF1823.6109430496945
aa(lp307
F86.2308654785
aF16.6732788086
aF3147.05200177383
aF1823.9321901504943
aa(lp308
F86.9228744507
aF16.8532447815
aF3147.7440107460297
aF1824.1121561233945
aa(lp309
F87.905418396
aF17.0344696045
aF3148.72655469133
aF1824.2933809463943
aa(lp310
F88.8930740356
aF17.1472568512
aF3149.7142103309297
aF1824.4061681930943
aa(lp311
F89.672744751
aF17.1898994446
aF3150.49388104633
aF1824.4488107864945
aa(lp312
F90.591835022
aF17.1569576263
aF3151.4129713173297
aF1824.4158689681944
aa(lp313
F91.5284881592
aF17.028585434
aF3152.34962445453
aF1824.2874967758944
aa(lp314
F92.3185119629
aF16.8674545288
aF3153.13964825823
aF1824.1263658706944
aa(lp315
F93.2735748291
aF16.5884914398
aF3154.09471112443
aF1823.8474027816944
aa(lp316
F94.0567398071
aF16.2908821106
aF3154.8778761024296
aF1823.5497934524944
aa(lp317
F95.0188064575
aF15.9217758179
aF3155.8399427528298
aF1823.1806871597944
aa(lp318
F95.7951049805
aF15.5962705612
aF3156.61624127583
aF1822.8551819030945
aa(lp319
F96.5581970215
aF15.2864551544
aF3157.3793333168296
aF1822.5453664962945
aa(lp320
F97.4930877686
aF14.7418079376
aF3158.31422406393
aF1822.0007192794944
aa(lp321
F97.9083404541
aF14.3205499649
aF3158.72947674943
aF1821.5794613067944
aa(lp322
F98.432144165
aF13.58872509
aF3159.2532804603297
aF1820.8476364318944
aa(lp323
F98.8675384521
aF12.7450170517
aF3159.68867474743
aF1820.0039283935944
aa(lp324
F99.1778182983
aF12.0131530762
aF3159.9989545936296
aF1819.2720644180945
aa(lp325
F99.4570159912
aF11.0878925323
aF3160.27815228653
aF1818.3468038741944
aa(lp326
F99.6489868164
aF10.1290216446
aF3160.4701231117297
aF1817.3879329864944
aa(lp327
F99.7460250854
aF9.31128311157
aF3160.56716138073
aF1816.5701944534644
aa(lp328
F99.788520813
aF8.31124305725
aF3160.60965710833
aF1815.5701543991445
aa(lp329
F99.7459945679
aF7.45833206177
aF3160.56713086323
aF1814.7172434036645
aa(lp330
F99.6619491577
aF6.61473035812
aF3160.4830854530296
aF1813.8736417000143
aa(lp331
F99.4927902222
aF5.5463013649
aF3160.3139265175296
aF1812.8052127067945
aa(lp332
F99.2530517578
aF4.50552415848
aF3160.0741880531295
aF1811.7644355003745
aa(lp333
F99.0173339844
aF3.61356067657
aF3159.83847027973
aF1810.8724720184644
aa(lp334
F98.7164916992
aF2.51102304459
aF3159.53762799453
aF1809.7699343864845
aa(lp335
F98.3776855469
aF1.45007073879
aF3159.19882184223
aF1808.7089820806843
aa(lp336
F98.105140686
aF0.535152435303
aF3158.92627698133
aF1807.7940637771974
aa(lp337
F97.7817687988
aF-0.609369218349
aF3158.6029050941297
aF1806.6495421235454
aa(lp338
F97.5760040283
aF-1.35045289993
aF3158.3971403236296
aF1805.9084584419645
aa(lp339
F97.2358779907
aF-2.64589166641
aF3158.0570142860297
aF1804.6130196754843
aa(lp340
F96.9900283813
aF-3.57139611244
aF3157.8111646766297
aF1803.6875152294544
aa(lp341
F96.7360229492
aF-4.5267124176
aF3157.55715924453
aF1802.7321989242944
aa(lp342
F96.4495010376
aF-5.74869823456
aF3157.2706373329297
aF1801.5102131073345
aa(lp343
F96.1935882568
aF-6.78101730347
aF3157.01472455213
aF1800.4778940384244
aa(lp344
F95.9102096558
aF-8.03460597992
aF3156.7313459511297
aF1799.2243053619745
aa(lp345
F95.5957641602
aF-9.24900817871
aF3156.4169004555297
aF1798.0099031631844
aa(lp346
F95.340965271
aF-10.2422704697
aF3156.16210156633
aF1797.0166408721943
aa(lp347
F95.0904083252
aF-11.4506101608
aF3155.9115446205296
aF1795.8083011810945
aa(lp348
F94.8702850342
aF-12.6733865738
aF3155.69142132953
aF1794.5855247680945
aa(lp349
F94.6804046631
aF-13.7014770508
aF3155.50154095843
aF1793.5574342910945
aa(lp350
F94.4955368042
aF-14.93861866
aF3155.31667309953
aF1792.3202926818944
aa(lp351
F94.3474578857
aF-15.9805860519
aF3155.1685941810297
aF1791.2783252899944
aa(lp352
F94.1909103394
aF-17.1861515045
aF3155.01204663473
aF1790.0727598373944
aa(lp353
F94.0874786377
aF-18.2128219604
aF3154.9086149330296
aF1789.0460893814943
aa(lp354
F94.0013198853
aF-19.4471492767
aF3154.8224561806296
aF1787.8117620651944
aa(lp355
F93.955657959
aF-20.6747093201
aF3154.7767942543296
aF1786.5842020217945
aa(lp356
F93.9528198242
aF-21.6992950439
aF3154.77395611953
aF1785.5596162979944
aa(lp357
F93.9732666016
aF-22.709197998
aF3154.7944028969296
aF1784.5497133438944
aa(lp358
F94.0315628052
aF-23.9010334015
aF3154.8526991005297
aF1783.3578779403945
aa(lp359
F94.1042938232
aF-24.9028072357
aF3154.9254301185297
aF1782.3561041061944
aa(lp360
F94.2364120483
aF-26.0899085999
aF3155.0575483436296
aF1781.1690027419945
aa(lp361
F94.418258667
aF-27.3188896179
aF3155.2393949623297
aF1779.9400217239945
aa(lp362
F94.5865097046
aF-28.318069458
aF3155.4076459999296
aF1778.9408418838943
aa(lp363
F94.7895507812
aF-29.5094547272
aF3155.6106870765298
aF1777.7494566146945
aa(lp364
F94.950553894
aF-30.4720840454
aF3155.77169018933
aF1776.7868272964945
aa(lp365
F95.1159515381
aF-31.4291706085
aF3155.93708783343
aF1775.8297407333944
aa(lp366
F95.3245010376
aF-32.6150627136
aF3156.1456373329297
aF1774.6438486282943
aa(lp367
F95.5026779175
aF-33.5692100525
aF3156.32381421283
aF1773.6897012893944
aa(lp368
F95.6932220459
aF-34.7621192932
aF3156.5143583412296
aF1772.4967920486945
aa(lp369
F95.8592376709
aF-36.0821876526
aF3156.6803739662296
aF1771.1767236892945
aa(lp370
F96.0173339844
aF-37.1355743408
aF3156.83847027973
aF1770.1233370010943
aa(lp371
F96.1750183105
aF-38.2094726562
aF3156.99615460583
aF1769.0494386856944
aa(lp372
F96.3045730591
aF-39.064037323
aF3157.12570935443
aF1768.1948740188943
aa(lp373
F96.4219284058
aF-40.0538101196
aF3157.2430647011297
aF1767.2051012222944
aa(lp374
F96.5682830811
aF-41.2852020264
aF3157.38941937643
aF1765.9737093154945
aa(lp375
F-14.9028434753
aF-32.8123817444
aF3045.91829282003
aF1774.4465295974944
aa(lp376
F-13.9483032227
aF-32.5035133362
aF3046.87283307263
aF1774.7553980056944
aa(lp377
F-12.7627754211
aF-32.1241340637
aF3048.05836087423
aF1775.1347772781944
aa(lp378
F-11.5855016708
aF-31.7626399994
aF3049.2356346245297
aF1775.4962713424943
aa(lp379
F-10.5930290222
aF-31.4371089935
aF3050.22810727313
aF1775.8218023483944
aa(lp380
F-9.40472316742
aF-31.0651283264
aF3051.41641312791
aF1776.1937830154943
aa(lp381
F-8.44281101227
aF-30.7657470703
aF3052.37832528306
aF1776.4931642715944
aa(lp382
F-7.2962346077
aF-30.4235877991
aF3053.5249016876296
aF1776.8353235427944
aa(lp383
F-6.31435918808
aF-30.1236114502
aF3054.50677710725
aF1777.1352998916943
aa(lp384
F-5.35183095932
aF-29.8342056274
aF3055.4693053360097
aF1777.4247057144944
aa(lp385
F-4.12404346466
aF-29.4920215607
aF3056.6970928306696
aF1777.7668897811943
aa(lp386
F-2.91338205338
aF-29.1414432526
aF3057.90775424195
aF1778.1174680892943
aa(lp387
F-1.88265919685
aF-28.8417377472
aF3058.93847709848
aF1778.4171735946943
aa(lp388
F-0.55699634552
aF-28.4511852264
aF3060.2641399498098
aF1778.8077261154945
aa(lp389
F0.560278177261
aF-28.1504230499
aF3061.3814144725907
aF1779.1084882919945
aa(lp390
F1.95419979095
aF-27.7812385559
aF3062.77533608628
aF1779.4776727859944
aa(lp391
F3.11269235611
aF-27.4762840271
aF3063.93382865144
aF1779.7826273147944
aa(lp392
F4.24376106262
aF-27.1863231659
aF3065.0648973579496
aF1780.0725881759945
aa(lp393
F5.78217887878
aF-26.8056545258
aF3066.60331517411
aF1780.4532568160944
aa(lp394
F7.01110935211
aF-26.5064735413
aF3067.83224564744
aF1780.7524378005944
aa(lp395
F8.63233470917
aF-26.1242923737
aF3069.4534710045
aF1781.1346189681944
aa(lp396
F10.2079467773
aF-25.7389850616
aF3071.02908307263
aF1781.5199262802944
aa(lp397
F11.586815834
aF-25.4062747955
aF3072.4079521293297
aF1781.8526365463945
aa(lp398
F13.2400407791
aF-25.0119915009
aF3074.06117707443
aF1782.2469198409945
aa(lp399
F14.8803386688
aF-24.6566200256
aF3075.70147496413
aF1782.6022913162944
aa(lp400
F16.1588954926
aF-24.3973388672
aF3076.98003178793
aF1782.8615724746944
aa(lp401
F17.6670074463
aF-24.0884494781
aF3078.4881437416298
aF1783.1704618637943
aa(lp402
F18.6476097107
aF-23.8963603973
aF3079.46874600603
aF1783.3625509445944
aa(lp403
F20.3561611176
aF-23.5795459747
aF3081.17729741293
aF1783.6793653671944
aa(lp404
F21.5795783997
aF-23.3593120575
aF3082.40071469503
aF1783.8995992843945
aa(lp405
F22.8275318146
aF-23.1414489746
aF3083.64866810993
aF1784.1174623672944
aa(lp406
F24.2644748688
aF-22.9144287109
aF3085.0856111641297
aF1784.3444826309944
aa(lp407
F25.4530143738
aF-22.7468833923
aF3086.27415066913
aF1784.5120279495943
aa(lp408
F27.0163574219
aF-22.5264587402
aF3087.83749371723
aF1784.7324526016944
aa(lp409
F28.378572464
aF-22.3504810333
aF3089.19970875933
aF1784.9084303085945
aa(lp410
F29.3061904907
aF-22.2369670868
aF3090.1273267860297
aF1785.0219442550945
aa(lp411
F30.6727695465
aF-22.0737705231
aF3091.49390584183
aF1785.1851408187945
aa(lp412
F32.0770683289
aF-21.9108600616
aF3092.89820462423
aF1785.3480512802944
aa(lp413
F33.2207984924
aF-21.7990341187
aF3094.0419347877296
aF1785.4598772231943
aa(lp414
F34.5912361145
aF-21.6603031158
aF3095.41237240983
aF1785.5986082260945
aa(lp415
F35.9119796753
aF-21.5257892609
aF3096.7331159706296
aF1785.7331220809945
aa(lp416
F36.9493522644
aF-21.4129428864
aF3097.77048855973
aF1785.8459684554944
aa(lp417
F38.0441665649
aF-21.291727066
aF3098.86530286023
aF1785.9671842758944
aa(lp418
F39.3738327026
aF-21.1345424652
aF3100.1949689979297
aF1786.1243688766945
aa(lp419
F40.3813667297
aF-21.0073680878
aF3101.2025030250297
aF1786.2515432540945
aa(lp420
F41.5765533447
aF-20.8447589874
aF3102.39768964003
aF1786.4141523544945
aa(lp421
F42.604850769
aF-20.7278347015
aF3103.42598706433
aF1786.5310766403945
aa(lp422
F43.8324394226
aF-20.6094932556
aF3104.65357571793
aF1786.6494180862944
aa(lp423
F44.7735328674
aF-20.5110301971
aF3105.5946691627296
aF1786.7478811447945
aa(lp424
F45.971622467
aF-20.3987598419
aF3106.79275876233
aF1786.8601514999943
aa(lp425
F47.1629447937
aF-20.292388916
aF3107.9840810890296
aF1786.9665224258945
aa(lp426
F47.9474372864
aF-20.2205638885
aF3108.76857358173
aF1787.0383474533944
aa(lp427
F49.1327056885
aF-20.1295719147
aF3109.95384198383
aF1787.1293394271945
aa(lp428
F50.4545783997
aF-20.0297451019
aF3111.27571469503
aF1787.2291662399944
aa(lp429
F51.2404174805
aF-19.9682979584
aF3112.06155377583
aF1787.2906133834945
aa(lp430
F52.3917694092
aF-19.8847923279
aF3113.21290570453
aF1787.3741190139945
aa(lp431
F53.445110321
aF-19.8192138672
aF3114.2662466163297
aF1787.4396974746944
aa(lp432
F54.3798522949
aF-19.7686805725
aF3115.20098859023
aF1787.4902307693944
aa(lp433
F55.4224853516
aF-19.7229118347
aF3116.2436216469296
aF1787.5359995071944
aa(lp434
F56.4028129578
aF-19.6898212433
aF3117.22394925313
aF1787.5690900985944
aa(lp435
F57.1919136047
aF-19.6611309052
aF3118.0130499000297
aF1787.5977804366944
aa(lp436
F58.1283378601
aF-19.6207046509
aF3118.94947415543
aF1787.6382066909944
aa(lp437
F58.9661636353
aF-19.5945091248
aF3119.7872999306296
aF1787.6644022170944
aa(lp438
F59.8018112183
aF-19.5696525574
aF3120.6229475136297
aF1787.6892587844943
aa(lp439
F60.9654350281
aF-19.5260601044
aF3121.7865713234296
aF1787.7328512374945
aa(lp440
F61.9257087708
aF-19.4940910339
aF3122.74684506613
aF1787.7648203079943
aa(lp441
F62.7327232361
aF-19.4662761688
aF3123.5538595314297
aF1787.7926351730944
aa(lp442
F63.6854057312
aF-19.4379043579
aF3124.5065420265296
aF1787.8210069839945
aa(lp443
F64.4134521484
aF-19.420955658
aF3125.23458844373
aF1787.8379556838945
aa(lp444
F65.2947692871
aF-19.399810791
aF3126.1159055824296
aF1787.8591005508945
aa(lp445
F65.9887924194
aF-19.3838481903
aF3126.8099287147297
aF1787.8750631515945
aa(lp446
F66.6788024902
aF-19.3683242798
aF3127.4999387855296
aF1787.8905870620945
aa(lp447
F67.6527099609
aF-19.3672161102
aF3128.47384625623
aF1787.8916952316945
aa(lp448
F68.2009353638
aF-19.356918335
aF3129.02207165913
aF1787.9019930068944
aa(lp449
F69.0698318481
aF-19.3650894165
aF3129.8909681434297
aF1787.8938219253944
aa(lp450
F69.98828125
aF-19.4000587463
aF3130.80941754533
aF1787.8588525955945
aa(lp451
F70.6753158569
aF-19.3963813782
aF3131.4964521522297
aF1787.8625299636944
aa(lp452
F71.4274673462
aF-19.3776416779
aF3132.24860364153
aF1787.8812696639943
aa(lp453
F72.1214981079
aF-19.3736572266
aF3132.94263440323
aF1787.8852541152944
aa(lp454
F72.7554473877
aF-19.3697452545
aF3133.5765836830296
aF1787.8891660873944
aa(lp455
F73.5667648315
aF-19.3684387207
aF3134.38790112683
aF1787.8904726211945
aa(lp456
F74.2409133911
aF-19.368013382
aF3135.06204968643
aF1787.8908979598943
aa(lp457
F75.0129547119
aF-19.3743572235
aF3135.8340910072297
aF1787.8845541183944
aa(lp458
F75.6646728516
aF-19.3881206512
aF3136.4858091469296
aF1787.8707906906943
aa(lp459
F76.454750061
aF-19.4030838013
aF3137.27588635633
aF1787.8558275405944
aa(lp460
F77.3012008667
aF-19.4380493164
aF3138.12233716203
aF1787.8208620254943
aa(lp461
F77.873840332
aF-19.462053299
aF3138.6949766273297
aF1787.7968580428944
aa(lp462
F78.7654724121
aF-19.4958877563
aF3139.5866087074296
aF1787.7630235855945
aa(lp463
F79.8203353882
aF-19.5397796631
aF3140.6414716835297
aF1787.7191316787944
aa(lp464
F80.4278945923
aF-19.5696353912
aF3141.24903088763
aF1787.6892759506943
aa(lp465
F81.3202972412
aF-19.6046409607
aF3142.14143353653
aF1787.6542703811945
aa(lp466
F82.2191848755
aF-19.652715683
aF3143.04032117083
aF1787.6061956588944
aa(lp467
F82.9832687378
aF-19.6856765747
aF3143.8044050331296
aF1787.5732347671944
aa(lp468
F83.9330062866
aF-19.7043972015
aF3144.75414258193
aF1787.5545141403945
aa(lp469
F84.7173461914
aF-19.699640274
aF3145.5384824867297
aF1787.5592710678943
aa(lp470
F85.6251220703
aF-19.6625423431
aF3146.4462583656295
aF1787.5963689987943
aa(lp471
F86.3695297241
aF-19.6158885956
aF3147.19066601943
aF1787.6430227462945
aa(lp472
F87.1082763672
aF-19.5583400726
aF3147.92941266253
aF1787.7005712692944
aa(lp473
F88.0051727295
aF-19.4577140808
aF3148.8263090248297
aF1787.8011972610943
aa(lp474
F88.719909668
aF-19.3561534882
aF3149.54104596333
aF1787.9027578536943
aa(lp475
F89.5374603271
aF-19.2030715942
aF3150.35859662243
aF1788.0558397476943
aa(lp476
F90.359954834
aF-18.9901371002
aF3151.1810911293296
aF1788.2687742416945
aa(lp477
F91.1447143555
aF-18.7598056793
aF3151.96585065083
aF1788.4991056625945
aa(lp478
F91.8024673462
aF-18.5322742462
aF3152.62360364153
aF1788.7266370956945
aa(lp479
F92.5592727661
aF-18.2319107056
aF3153.38040906143
aF1789.0270006362944
aa(lp480
F93.1858978271
aF-17.9627971649
aF3154.00703412243
aF1789.2961141769945
aa(lp481
F93.7640609741
aF-17.66680336
aF3154.58519726943
aF1789.5921079818945
aa(lp482
F94.4391708374
aF-17.2599124908
aF3155.26030713273
aF1789.9989988510945
aa(lp483
F95.0003356934
aF-16.8971843719
aF3155.8214719887296
aF1790.3617269699944
aa(lp484
F95.6464996338
aF-16.4316673279
aF3156.4676359291298
aF1790.8272440139945
aa(lp485
F96.2877044678
aF-15.9138231277
aF3157.1088407631296
aF1791.3450882141944
aa(lp486
F96.7803039551
aF-15.453168869
aF3157.6014402504297
aF1791.8057424728945
aa(lp487
F97.356880188
aF-14.857131958
aF3158.17801648333
aF1792.4017793838943
aa(lp488
F97.9127120972
aF-14.2226085663
aF3158.7338483925296
aF1793.0363027755943
aa(lp489
F98.3490982056
aF-13.6842079163
aF3159.17023450093
aF1793.5747034255944
aa(lp490
F98.8340606689
aF-12.9947357178
aF3159.6551969642296
aF1794.2641756240944
aa(lp491
F99.1925048828
aF-12.4016304016
aF3160.0136411781295
aF1794.8572809402945
aa(lp492
F99.5196075439
aF-11.7917251587
aF3160.3407438392296
aF1795.4671861831944
aa(lp493
F99.9455718994
aF-10.8973760605
aF3160.7667081947297
aF1796.3615352813945
aa(lp494
F100.22681427
aF-10.2361106873
aF3161.0479505653298
aF1797.0228006545944
aa(lp495
F100.494537354
aF-9.59878635406
aF3161.3156736493297
aF1797.6601249878345
aa(lp496
F100.807723999
aF-8.81283664703
aF3161.6288602943296
aF1798.4460746948644
aa(lp497
F101.132102966
aF-8.00829029083
aF3161.9532392613296
aF1799.2506210510644
aa(lp498
F101.417854309
aF-7.34042215347
aF3162.23899060433
aF1799.9184891884245
aa(lp499
F101.762580872
aF-6.55199718475
aF3162.5837171673297
aF1800.7069141571444
aa(lp500
F101.994148254
aF-6.0281291008
aF3162.8152845493296
aF1801.2307822410944
aa(lp501
F102.351303101
aF-5.24185991287
aF3163.17243939633
aF1802.0170514290244
aa(lp502
F102.710098267
aF-4.43103647232
aF3163.5312345623297
aF1802.8278748695743
aa(lp503
F103.002120972
aF-3.7651746273
aF3163.8232572673296
aF1803.4937367145944
aa(lp504
F103.366775513
aF-2.98948717117
aF3164.1879118083298
aF1804.2694241707245
aa(lp505
F103.669242859
aF-2.33027267456
aF3164.4903791543297
aF1804.9286386673343
aa(lp506
F104.028419495
aF-1.52084159851
aF3164.8495557903298
aF1805.7380697433844
aa(lp507
F104.392234802
aF-0.655407369137
aF3165.21337109733
aF1806.6035039727574
aa(lp508
F104.691383362
aF0.0544915795326
aF3165.51251965733
aF1807.313402921427
aa(lp509
F104.994552612
aF0.78658914566
aF3165.81568890733
aF1808.0455004875544
aa(lp510
F105.343170166
aF1.66138827801
aF3166.16430646133
aF1808.9202996199044
aa(lp511
F105.690818787
aF2.54442429543
aF3166.5119550823297
aF1809.8033356373244
aa(lp512
F105.98046875
aF3.30245471001
aF3166.80160504533
aF1810.5613660519043
aa(lp513
F106.334884644
aF4.20423221588
aF3167.1560209393297
aF1811.4631435577744
aa(lp514
F106.622207642
aF4.96701812744
aF3167.4433439373297
aF1812.2259294693345
aa(lp515
F106.971199036
aF5.88817024231
aF3167.79233533133
aF1813.1470815842044
aa(lp516
F107.265983582
aF6.66055345535
aF3168.0871198773298
aF1813.9194647972445
aa(lp517
F107.612327576
aF7.60231494904
aF3168.43346387133
aF1814.8612262909344
aa(lp518
F107.952362061
aF8.53446960449
aF3168.7734983563296
aF1815.7933809463843
aa(lp519
F108.171585083
aF9.15490531921
aF3168.99272137833
aF1816.4138166611044
aa(lp520
F108.502349854
aF10.1138944626
aF3169.3234861493297
aF1817.3728058044944
aa(lp521
F108.880126953
aF11.2549629211
aF3169.7012632483297
aF1818.5138742629945
aa(lp522
F109.103530884
aF11.9390163422
aF3169.92466717933
aF1819.1979276840943
aa(lp523
F109.432273865
aF12.9521179199
aF3170.2534101603296
aF1820.2110292617945
aa(lp524
F109.762687683
aF13.9314079285
aF3170.5838239783297
aF1821.1903192703944
aa(lp525
F110.030136108
aF14.7319097519
aF3170.85127240333
aF1821.9908210937945
aa(lp526
F110.346260071
aF15.6732940674
aF3171.1673963663297
aF1822.9322054092945
aa(lp527
F110.658973694
aF16.5926799774
aF3171.48010998933
aF1823.8515913192944
aa(lp528
F110.865402222
aF17.1892356873
aF3171.6865385173296
aF1824.4481470291944
aa(lp529
F111.174232483
aF18.0835189819
aF3171.99536877833
aF1825.3424303237944
aa(lp530
F111.475715637
aF18.9350547791
aF3172.29685193233
aF1826.1939661209944
aa(lp531
F111.720649719
aF19.6281661987
aF3172.54178601433
aF1826.8870775405944
aa(lp532
F111.998542786
aF20.4375534058
aF3172.81967908133
aF1827.6964647476943
aa(lp533
F112.214256287
aF21.0770320892
aF3173.0353925823297
aF1828.3359434310944
aa(lp534
F112.454467773
aF21.6701564789
aF3173.27560406833
aF1828.9290678207944
aa(lp535
F112.773040771
aF22.5634784698
aF3173.59417706633
aF1829.8223898116944
aa(lp536
F112.937187195
aF23.0546779633
aF3173.75832349033
aF1830.3135893051945
aa(lp537
F113.181785583
aF23.7724990845
aF3174.0029218783297
aF1831.0314104263944
aa(lp538
F113.416473389
aF24.4799957275
aF3174.23760968433
aF1831.7389070693944
aa(lp539
F113.681808472
aF25.249370575
aF3174.5029447673296
aF1832.5082819168945
aa(lp540
F113.930931091
aF25.9265594482
aF3174.7520673863296
aF1833.1854707900943
aa(lp541
F114.221679688
aF26.7333831787
aF3175.04281598333
aF1833.9922945205944
aa(lp542
F114.477172852
aF27.4260597229
aF3175.2983091473297
aF1834.6849710647944
aa(lp543
F114.737304688
aF28.133682251
aF3175.55844098333
aF1835.3925935928944
aa(lp544
F115.068771362
aF29.0031890869
aF3175.88990765733
aF1836.2621004287944
aa(lp545
F115.355499268
aF29.747089386
aF3176.17663556333
aF1837.0060007278944
aa(lp546
F115.707420349
aF30.644109726
aF3176.52855664433
aF1837.9030210678943
aa(lp547
F116.075820923
aF31.5772342682
aF3176.8969572183296
aF1838.8361456100945
aa(lp548
F116.382949829
aF32.3500061035
aF3177.20408612433
aF1839.6089174453944
aa(lp549
F116.771347046
aF33.3103561401
aF3177.5924833413296
aF1840.5692674819943
aa(lp550
F117.174377441
aF34.2962150574
aF3177.99551373633
aF1841.5551263992945
aa(lp551
F117.445304871
aF34.9649085999
aF3178.26644116633
aF1842.2238199417943
aa(lp552
F117.851249695
aF35.9753494263
aF3178.67238599033
aF1843.2342607681944
aa(lp553
F118.270729065
aF37.0099029541
aF3179.09186536033
aF1844.2688142959944
aa(lp554
F118.626869202
aF37.8803253174
aF3179.4480054973296
aF1845.1392366592945
aa(lp555
F119.057777405
aF38.9135971069
aF3179.8789137003296
aF1846.1725084487944
aa(lp556
F119.502609253
aF39.9803619385
aF3180.32374554833
aF1847.2392732803944
aa(lp557
F119.7942276
aF40.6738471985
aF3180.6153638953297
aF1847.9327585403944
aa(lp558
F120.255851746
aF41.7458229065
aF3181.07698804133
aF1849.0047342483945
aa(lp559
F120.724632263
aF42.8172721863
aF3181.5457685583297
aF1850.0761835281944
aa(lp560
F121.121269226
aF43.7136268616
aF3181.94240552133
aF1850.9725382034944
aa(lp561
F121.598129272
aF44.7829627991
aF3182.4192655673296
aF1852.0418741409944
aa(lp562
F122.009086609
aF45.7110290527
aF3182.8302229043297
aF1852.9699403945945
aa(lp563
F122.496589661
aF46.8113594055
aF3183.31772595633
aF1854.0702707473945
aa(lp564
F122.989059448
aF47.919506073
aF3183.8101957433296
aF1855.1784174148945
aa(lp565
F123.409439087
aF48.8530387878
aF3184.23057538233
aF1856.1119501296944
aa(lp566
F123.83265686
aF49.7846183777
aF3184.65379315533
aF1857.0435297195945
aa(lp567
F124.35004425
aF50.9071769714
aF3185.1711805453297
aF1858.1660883132945
aa(lp568
F124.855529785
aF52.0290603638
aF3185.6766660803296
aF1859.2879717056944
aa(lp569
F125.278923035
aF52.9508056641
aF3186.1000593303297
aF1860.2097170059944
aa(lp570
F125.804748535
aF54.0858459473
aF3186.6258848303296
aF1861.3447572891944
aa(lp571
F126.32649231
aF55.1985092163
aF3187.14762860533
aF1862.4574205581944
aa(lp572
F126.7472229
aF56.1119728088
aF3187.56835919533
aF1863.3708841506943
aa(lp573
F127.292037964
aF57.2885246277
aF3188.1131742593298
aF1864.5474359695945
aa(lp574
F127.645866394
aF58.058052063
aF3188.46700268933
aF1865.3169634048945
aa(lp575
F128.190002441
aF59.190486908
aF3189.01113873633
aF1866.4493982498943
aa(lp576
F128.713790894
aF60.2606773376
aF3189.5349271893297
aF1867.5195886794945
aa(lp577
F129.160324097
aF61.1502075195
aF3189.9814603923296
aF1868.4091188613945
aa(lp578
F129.700363159
aF62.2163162231
aF3190.52149945433
aF1869.4752275649944
aa(lp579
F130.224533081
aF63.214881897
aF3191.04566937633
aF1870.4737932388944
aa(lp580
F130.665969849
aF64.0347518921
aF3191.4871061443296
aF1871.2936632339945
aa(lp581
F131.17918396
aF64.9838562012
aF3192.00032025533
aF1872.2427675430945
aa(lp582
F131.522109985
aF65.6216812134
aF3192.34324628033
aF1872.8805925552945
aa(lp583
F132.025238037
aF66.5612030029
aF3192.84637433233
aF1873.8201143447943
aa(lp584
F132.516433716
aF67.4833450317
aF3193.3375700113297
aF1874.7422563735945
aa(lp585
F132.915847778
aF68.2376785278
aF3193.73698407333
aF1875.4965898696944
aa(lp586
F133.369689941
aF69.0712585449
aF3194.19082623633
aF1876.3301698867945
aa(lp587
F133.843231201
aF69.8792953491
aF3194.6643674963298
aF1877.1382066909944
aa(lp588
F134.223419189
aF70.5639266968
aF3195.04455548433
aF1877.8228380386945
aa(lp589
F134.64616394
aF71.3666534424
aF3195.4673002353297
aF1878.6255647842945
aa(lp590
F134.928039551
aF71.884803772
aF3195.7491758463298
aF1879.1437151138944
aa(lp591
F135.384094238
aF72.7966461182
aF3196.20523053333
aF1880.0555574600944
aa(lp592
F135.770187378
aF73.4325790405
aF3196.59132367333
aF1880.6914903823945
aa(lp593
F136.17124939
aF74.124671936
aF3196.9923856853297
aF1881.3835832778943
aa(lp594
F136.593399048
aF74.8832778931
aF3197.4145353433296
aF1882.1421892349945
aa(lp595
F136.975479126
aF75.5968704224
aF3197.79661542133
aF1882.8557817642945
aa(lp596
F137.310974121
aF76.193397522
aF3198.13211041633
aF1883.4523088638944
aa(lp597
F137.746337891
aF76.9938659668
aF3198.56747418633
aF1884.2527773086945
aa(lp598
F138.190048218
aF77.8156585693
aF3199.0111845133297
aF1885.0745699111944
aa(lp599
F138.569396973
aF78.5156707764
aF3199.39053326833
aF1885.7745821182943
aa(lp600
F139.031845093
aF79.3706130981
aF3199.8529813883297
aF1886.6295244399944
aa(lp601
F139.437179565
aF80.1142959595
aF3200.2583158603297
aF1887.3732073013944
aa(lp602
F139.938522339
aF81.0213470459
aF3200.7596586343298
aF1888.2802583877944
aa(lp603
F140.359603882
aF81.7714157104
aF3201.18074017733
aF1889.0303270522945
aa(lp604
F140.792984009
aF82.546005249
aF3201.61412030433
aF1889.8049165908944
aa(lp605
F141.443710327
aF83.6827545166
aF3202.26484662233
aF1890.9416658584944
aa(lp606
F141.812652588
aF84.3349075317
aF3202.6337888833295
aF1891.5938188735945
aa(lp607
F142.43850708
aF85.3793029785
aF3203.2596433753297
aF1892.6382143203944
aa(lp608
F143.043106079
aF86.4154434204
aF3203.86424237433
aF1893.6743547622943
aa(lp609
F143.575073242
aF87.2886276245
aF3204.39620953733
aF1894.5475389663943
aa(lp610
F144.190704346
aF88.3175964355
aF3205.01184064133
aF1895.5765077773945
aa(lp611
F144.611679077
aF89.022026062
aF3205.43281537233
aF1896.2809374038943
aa(lp612
F145.282669067
aF90.1062316895
aF3206.1038053623297
aF1897.3651430313944
aa(lp613
F145.942520142
aF91.2026443481
aF3206.7636564373297
aF1898.4615556899944
aa(lp614
F146.488845825
aF92.099571228
aF3207.3099821203296
aF1899.3584825698945
aa(lp615
F147.160232544
aF93.192855835
aF3207.9813688393297
aF1900.4517671768945
aa(lp616
F147.841903687
aF94.292137146
aF3208.66303998233
aF1901.5510484878944
aa(lp617
F148.416427612
aF95.1990127563
aF3209.23756390733
aF1902.4579240981943
aa(lp618
F149.121917725
aF96.2828445435
aF3209.94305402033
aF1903.5417558853944
aa(lp619
F149.840835571
aF97.3660507202
aF3210.6619718663296
aF1904.6249620620945
aa(lp620
F150.440338135
aF98.2618408203
aF3211.2614744303296
aF1905.5207521621944
aa(lp621
F151.165557861
aF99.3361129761
aF3211.9866941563296
aF1906.5950243179943
aa(lp622
F151.656845093
aF100.046615601
aF3212.4779813883297
aF1907.3055269428944
aa(lp623
F152.564193726
aF101.340682983
aF3213.38533002133
aF1908.5995943248945
aa(lp624
F153.213012695
aF102.285163879
aF3214.03414899033
aF1909.5440752208945
aa(lp625
F153.841033936
aF103.204856873
aF3214.6621702313296
aF1910.4637682148943
aa(lp626
F154.578613281
aF104.298377991
aF3215.3997495763297
aF1911.5572893328945
aa(lp627
F155.206985474
aF105.228927612
aF3216.0281217693296
aF1912.4878389538944
aa(lp628
F155.952468872
aF106.352676392
aF3216.7736051673296
aF1913.6115877338943
aa(lp629
F156.690567017
aF107.462226868
aF3217.5117033123297
aF1914.7211382098944
aa(lp630
F157.299133301
aF108.381103516
aF3218.1202695963298
aF1915.6400148578944
aa(lp631
F158.037857056
aF109.500839233
aF3218.85899335133
aF1916.7597505748945
aa(lp632
F158.776809692
aF110.627166748
aF3219.5979459873297
aF1917.8860780898945
aa(lp633
F159.390182495
aF111.571464539
aF3220.2113187903296
aF1918.8303758808945
aa(lp634
F160.017272949
aF112.519996643
aF3220.83840924433
aF1919.7789079848944
aa(lp635
F160.661270142
aF113.493392944
aF3221.4824064373297
aF1920.7523042858945
aa(lp636
F161.417602539
aF114.636314392
aF3222.23873883433
aF1921.8952257338944
aa(lp637
F162.162612915
aF115.753562927
aF3222.9837492103297
aF1923.0124742688945
aa(lp638
F162.781356812
aF116.678321838
aF3223.60249310733
aF1923.9372331798945
aa(lp639
F163.511032104
aF117.754890442
aF3224.33216839933
aF1925.0138017838945
aa(lp640
F164.116073608
aF118.631278992
aF3224.93720990333
aF1925.8901903338945
aa(lp641
F164.867431641
aF119.711738586
aF3225.68856793633
aF1926.9706499278943
aa(lp642
F165.488739014
aF120.599891663
aF3226.30987530933
aF1927.8588030048945
aa(lp643
F166.36050415
aF121.837615967
aF3227.18164044533
aF1929.0965273088943
aa(lp644
F167.106735229
aF122.86781311
aF3227.92787152433
aF1930.1267244518945
aa(lp645
F167.597793579
aF123.534767151
aF3228.41892987433
aF1930.7936784928945
aa(lp646
F168.448638916
aF124.687187195
aF3229.26977521133
aF1931.9460985368944
aa(lp647
F169.164520264
aF125.640457153
aF3229.98565655933
aF1932.8993684948944
aa(lp648
F169.648284912
aF126.26184845
aF3230.46942120733
aF1933.5207597918943
aa(lp649
F170.377029419
aF127.195915222
aF3231.1981657143297
aF1934.4548265638944
aa(lp650
F171.101974487
aF128.100784302
aF3231.92311078233
aF1935.3596956438944
aa(lp651
F171.705993652
aF128.839004517
aF3232.5271299473297
aF1936.0979158588943
aa(lp652
F172.406036377
aF129.671142578
aF3233.2271726723297
aF1936.9300539198944
aa(lp653
F172.967773438
aF130.329956055
aF3233.78890973333
aF1937.5888673968943
aa(lp654
F173.601318359
aF131.070220947
aF3234.4224546543296
aF1938.3291322888945
aa(lp655
F174.192337036
aF131.766387939
aF3235.01347333133
aF1939.0252992808944
aa(lp656
F174.684692383
aF132.339202881
aF3235.5058286783296
aF1939.5981142228943
aa(lp657
F175.272125244
aF133.042037964
aF3236.09326153933
aF1940.3009493058944
aa(lp658
F175.642089844
aF133.47265625
aF3236.46322613933
aF1940.7315675918944
aa(lp659
F176.171051025
aF134.13319397
aF3236.99218732033
aF1941.3921053118945
aa(lp660
F176.828567505
aF134.831314087
aF3237.64970380033
aF1942.0902254288944
aa(lp661
F177.222473145
aF135.243011475
aF3238.04360944033
aF1942.5019228168944
aa(lp662
F177.750442505
aF135.866043091
aF3238.57157880033
aF1943.1249544328944
aa(lp663
F178.145553589
aF136.344543457
aF3238.9666898843298
aF1943.6034547988943
aa(lp664
F178.653640747
aF136.913421631
aF3239.4747770423296
aF1944.1723329728943
aa(lp665
F179.191894531
aF137.537002563
aF3240.0130308263297
aF1944.7959139048944
aa(lp666
F179.64894104
aF138.069595337
aF3240.4700773353297
aF1945.3285066788944
aa(lp667
F180.116317749
aF138.594741821
aF3240.9374540443296
aF1945.8536531628945
aa(lp668
F180.682128906
aF139.248138428
aF3241.5032652013297
aF1946.5070497698944
aa(lp669
F181.263427734
aF139.908294678
aF3242.0845640293296
aF1947.1672060198944
aa(lp670
F181.758911133
aF140.460739136
aF3242.5800474283296
aF1947.7196504778944
aa(lp671
F182.362289429
aF141.136367798
aF3243.18342572433
aF1948.3952791398945
aa(lp672
F182.86555481
aF141.692367554
aF3243.68669110533
aF1948.9512788958943
aa(lp673
F183.470962524
aF142.35508728
aF3244.2920988193296
aF1949.6139986218943
aa(lp674
F183.973617554
aF142.906768799
aF3244.79475384933
aF1950.1656801408944
aa(lp675
F184.586410522
aF143.57069397
aF3245.4075468173296
aF1950.8296053118945
aa(lp676
F185.191467285
aF144.225891113
aF3246.0126035803296
aF1951.4848024548944
aa(lp677
F185.582672119
aF144.652770996
aF3246.40380841433
aF1951.9116823378945
aa(lp678
F186.182281494
aF145.273574829
aF3247.00341778933
aF1952.5324861708943
aa(lp679
F186.916305542
aF146.051376343
aF3247.7374418373297
aF1953.3102876848943
aa(lp680
F187.367736816
aF146.52130127
aF3248.18887311133
aF1953.7802126118945
aa(lp681
F188.057601929
aF147.243240356
aF3248.87873822433
aF1954.5021516978945
aa(lp682
F188.738967896
aF147.979797363
aF3249.5601041913296
aF1955.2387087048944
aa(lp683
F189.302734375
aF148.596008301
aF3250.12387067033
aF1955.8549196428944
aa(lp684
F189.989028931
aF149.347976685
aF3250.81016522633
aF1956.6068880268945
aa(lp685
F190.560272217
aF149.991973877
aF3251.38140851233
aF1957.2508852188944
aa(lp686
F191.246963501
aF150.779937744
aF3252.06809979633
aF1958.0388490858945
aa(lp687
F191.930419922
aF151.602981567
aF3252.75155621733
aF1958.8618929088943
aa(lp688
F192.380722046
aF152.171844482
aF3253.2018583413296
aF1959.4307558238945
aa(lp689
F193.04888916
aF153.017059326
aF3253.8700254553296
aF1960.2759706678944
aa(lp690
F193.727355957
aF153.876464844
aF3254.5484922523297
aF1961.1353761858945
aa(lp691
F194.301391602
aF154.607727051
aF3255.1225278973297
aF1961.8666383928944
aa(lp692
F195.00994873
aF155.503341675
aF3255.8310850253297
aF1962.7622530168944
aa(lp693
F195.736801147
aF156.418075562
aF3256.5579374423296
aF1963.6769869038944
aa(lp694
F196.338867188
aF157.161804199
aF3257.16000348333
aF1964.4207155408944
aa(lp695
F197.083602905
aF158.064346313
aF3257.90473920033
aF1965.3232576548944
aa(lp696
F197.58631897
aF158.684051514
aF3258.4074552653296
aF1965.9429628558944
aa(lp697
F198.343292236
aF159.592712402
aF3259.1644285313296
aF1966.8516237438944
aa(lp698
F198.988510132
aF160.343643188
aF3259.80964642733
aF1967.6025545298944
aa(lp699
F199.625335693
aF161.082122803
aF3260.44647198833
aF1968.3410341448944
aa(lp700
F200.397338867
aF161.96647644
aF3261.21847516233
aF1969.2253877818944
aa(lp701
F201.312515259
aF163.016204834
aF3262.13365155433
aF1970.2751161758945
aa(lp702
F201.83732605
aF163.613372803
aF3262.65846234533
aF1970.8722841448944
aa(lp703
F202.637771606
aF164.525665283
aF3263.45890790133
aF1971.7845766248945
aa(lp704
F203.452957153
aF165.434310913
aF3264.27409344833
aF1972.6932222548944
aa(lp705
F204.141952515
aF166.193252563
aF3264.9630888103297
aF1973.4521639048944
aa(lp706
F204.972839355
aF167.09324646
aF3265.7939756503297
aF1974.3521578018945
aa(lp707
F205.803939819
aF167.981796265
aF3266.6250761143297
aF1975.2407076068944
aa(lp708
F206.497894287
aF168.712966919
aF3267.31903058233
aF1975.9718782608943
aa(lp709
F207.304718018
aF169.554977417
aF3268.12585431333
aF1976.8138887588943
aa(lp710
F207.837966919
aF170.112472534
aF3268.6591032143297
aF1977.3713838758945
aa(lp711
F208.608779907
aF170.928726196
aF3269.42991620233
aF1978.1876375378945
aa(lp712
F209.343841553
aF171.717025757
aF3270.1649778483297
aF1978.9759370988945
aa(lp713
F209.979202271
aF172.380279541
aF3270.8003385663296
aF1979.6391908828944
aa(lp714
F210.748794556
aF173.160217285
aF3271.56993085133
aF1980.4191286268945
aa(lp715
F211.53352356
aF173.951568604
aF3272.35465985533
aF1981.2104799458943
aa(lp716
F212.179397583
aF174.623291016
aF3273.00053387833
aF1981.8822023578944
aa(lp717
F212.953689575
aF175.422058105
aF3273.7748258703296
aF1982.6809694468943
aa(lp718
F213.470199585
aF175.954879761
aF3274.29133588033
aF1983.2137911028944
aa(lp719
F214.216751099
aF176.737930298
aF3275.0378873943296
aF1983.9968416398945
aa(lp720
F214.954605103
aF177.50819397
aF3275.77574139833
aF1984.7671053118945
aa(lp721
F215.552963257
aF178.139053345
aF3276.37409955233
aF1985.3979646868945
aa(lp722
F216.258346558
aF178.867980957
aF3277.07948285333
aF1986.1268922988943
aa(lp723
F216.965805054
aF179.592605591
aF3277.78694134933
aF1986.8515169328944
aa(lp724
F217.529449463
aF180.173309326
aF3278.3505857583295
aF1987.4322206678944
aa(lp725
F218.187271118
aF180.845001221
aF3279.0084074133297
aF1988.1039125628945
aa(lp726
F218.825683594
aF181.49420166
aF3279.64681988933
aF1988.7531130018945
aa(lp727
F219.238800049
aF181.923995972
aF3280.05993634433
aF1989.1829073138945
aa(lp728
F219.8409729
aF182.552536011
aF3280.66210919533
aF1989.8114473528944
aa(lp729
F220.321060181
aF183.058074951
aF3281.14219647633
aF1990.3169862928944
aa(lp730
F220.87336731
aF183.649932861
aF3281.69450360533
aF1990.9088442028944
aa(lp731
F221.39743042
aF184.234680176
aF3282.21856671533
aF1991.4935915178944
aa(lp732
F221.822006226
aF184.720733643
aF3282.64314252133
aF1991.9796449848943
aa(lp733
F222.389572144
aF185.38911438
aF3283.2107084393297
aF1992.6480257218943
aa(lp734
F222.69468689
aF185.777496338
aF3283.5158231853297
aF1993.0364076798944
aa(lp735
F223.130065918
aF186.371124268
aF3283.95120221333
aF1993.6300356098943
aa(lp736
F223.527206421
aF186.976806641
aF3284.3483427163296
aF1994.2357179828944
aa(lp737
F223.81022644
aF187.490829468
aF3284.6313627353297
aF1994.7497408098943
aa(lp738
F224.086044312
aF188.101043701
aF3284.90718060733
aF1995.3599550428944
aa(lp739
F224.242828369
aF188.504882812
aF3285.06396466433
aF1995.7637941538944
aa(lp740
F224.436355591
aF189.207717896
aF3285.2574918863297
aF1996.4666292378945
aa(lp741
F224.535324097
aF189.799041748
aF3285.3564603923296
aF1997.0579530898945
aa(lp742
F224.557128906
aF190.272796631
aF3285.3782652013297
aF1997.5317079728943
aa(lp743
F224.509658813
aF190.804428101
aF3285.3307951083298
aF1998.0633394428944
aa(lp744
F224.421707153
aF191.212997437
aF3285.24284344833
aF1998.4719087788944
aa(lp745
F224.27130127
aF191.689224243
aF3285.09243756533
aF1998.9481355848943
aa(lp746
F224.047164917
aF192.143676758
aF3284.8683012123297
aF1999.4025880998945
aa(lp747
F223.825744629
aF192.511581421
aF3284.6468809243297
aF1999.7704927628945
aa(lp748
F223.563720703
aF192.856338501
aF3284.3848569983297
aF2000.1152498428944
aa(lp749
F223.186965942
aF193.22505188
aF3284.0081022373297
aF2000.4839632218943
aa(lp750
F222.762420654
aF193.571533203
aF3283.5835569493297
aF2000.8304445448944
aa(lp751
F222.379257202
aF193.846374512
aF3283.20039349733
aF2001.1052858538944
aa(lp752
F221.863479614
aF194.149688721
aF3282.6846159093298
aF2001.4086000628945
aa(lp753
F221.418609619
aF194.374145508
aF3282.23974591433
aF2001.6330568498945
aa(lp754
F220.834869385
aF194.631057739
aF3281.6560056803296
aF2001.8899690808944
aa(lp755
F220.221466064
aF194.881912231
aF3281.04260235933
aF2002.1408235728945
aa(lp756
F219.703430176
aF195.087890625
aF3280.5245664713298
aF2002.3468019668944
aa(lp757
F219.078460693
aF195.344299316
aF3279.89959698833
aF2002.6032106578944
aa(lp758
F218.669113159
aF195.519882202
aF3279.49024945433
aF2002.7787935438944
aa(lp759
F217.942779541
aF195.842956543
aF3278.76391583633
aF2003.1018678848945
aa(lp760
F217.305938721
aF196.138366699
aF3278.12707501633
aF2003.3972780408944
aa(lp761
F216.858215332
aF196.33013916
aF3277.6793516273297
aF2003.5890505018945
aa(lp762
F216.171035767
aF196.622772217
aF3276.9921720623297
aF2003.8816835588943
aa(lp763
F215.479415894
aF196.91569519
aF3276.3005521893297
aF2004.1746065318944
aa(lp764
F214.898117065
aF197.16078186
aF3275.7192533603297
aF2004.4196932018945
aa(lp765
F214.176635742
aF197.47013855
aF3274.99777203733
aF2004.7290498918944
aa(lp766
F213.445281982
aF197.780517578
aF3274.2664182773296
aF2005.0394289198944
aa(lp767
F212.85194397
aF198.032348633
aF3273.6730802653296
aF2005.2912599748945
aa(lp768
F212.157836914
aF198.293945312
aF3272.97897320933
aF2005.5528566538944
aa(lp769
F211.556335449
aF198.517776489
aF3272.37747174433
aF2005.7766878308944
aa(lp770
F210.932037354
aF198.763916016
aF3271.7531736493297
aF2006.0228273578944
aa(lp771
F210.181625366
aF199.06993103
aF3271.0027616613297
aF2006.3288423718943
aa(lp772
F209.526412964
aF199.322357178
aF3270.3475492593298
aF2006.5812685198944
aa(lp773
F208.707901001
aF199.636993408
aF3269.52903729633
aF2006.8959047498945
aa(lp774
F207.862014771
aF199.962265015
aF3268.6831510663296
aF2007.2211763568944
aa(lp775
F207.153259277
aF200.231536865
aF3267.9743955723297
aF2007.4904482068944
aa(lp776
F206.273498535
aF200.567489624
aF3267.0946348303296
aF2007.8264009658944
aa(lp777
F205.681747437
aF200.791854858
aF3266.50288373233
aF2008.0507661998945
aa(lp778
F204.608413696
aF201.203964233
aF3265.4295499913296
aF2008.4628755748945
aa(lp779
F203.68006897
aF201.555145264
aF3264.5012052653296
aF2008.8140566058944
aa(lp780
F203.061737061
aF201.788726807
aF3263.8828733563296
aF2009.0476381488943
aa(lp781
F202.10546875
aF202.151748657
aF3262.92660504533
aF2009.4106599988945
aa(lp782
F201.113647461
aF202.516952515
aF3261.9347837563296
aF2009.7758638568944
aa(lp783
F200.267303467
aF202.816299438
aF3261.08843976233
aF2010.0752107798944
aa(lp784
F199.275344849
aF203.171813965
aF3260.0964811443296
aF2010.4307253068944
aa(lp785
F198.444076538
aF203.470306396
aF3259.2652128333298
aF2010.7292177378945
aa(lp786
F197.416412354
aF203.849655151
aF3258.2375486493297
aF2011.1085664928944
aa(lp787
F196.354293823
aF204.246734619
aF3257.1754301183296
aF2011.5056459608945
aa(lp788
F195.456558228
aF204.58555603
aF3256.27769452333
aF2011.8444673718943
aa(lp789
F194.386962891
aF204.991699219
aF3255.20809918633
aF2012.2506105608945
aa(lp790
F193.496459961
aF205.323028564
aF3254.3175962563296
aF2012.5819399058944
aa(lp791
F192.413574219
aF205.730056763
aF3253.23471051433
aF2012.9889681048944
aa(lp792
F191.344238281
aF206.140853882
aF3252.1653745763297
aF2013.3997652238945
aa(lp793
F190.619247437
aF206.421737671
aF3251.44038373233
aF2013.6806490128945
aa(lp794
F189.549118042
aF206.839691162
aF3250.3702543373297
aF2014.0986025038944
aa(lp795
F188.310256958
aF207.31413269
aF3249.13139325333
aF2014.5730440318944
aa(lp796
F187.577316284
aF207.598312378
aF3248.39845257933
aF2014.8572237198944
aa(lp797
F186.448638916
aF208.030853271
aF3247.26977521133
aF2015.2897646128945
aa(lp798
F185.347503662
aF208.456069946
aF3246.16863995733
aF2015.7149812878945
aa(lp799
F184.596847534
aF208.745956421
aF3245.41798382933
aF2016.0048677628945
aa(lp800
F183.466918945
aF209.172241211
aF3244.28805524033
aF2016.4311525528944
aa(lp801
F182.331192017
aF209.604415894
aF3243.1523283123297
aF2016.8633272358943
aa(lp802
F181.40574646
aF209.963226318
aF3242.22688275533
aF2017.2221376598945
aa(lp803
F180.263702393
aF210.397476196
aF3241.08483868833
aF2017.6563875378945
aa(lp804
F179.316268921
aF210.75352478
aF3240.1374052163296
aF2018.0124361218943
aa(lp805
F178.216903687
aF211.165985107
aF3239.03803998233
aF2018.4248964488945
aa(lp806
F177.31477356
aF211.490280151
aF3238.13590985533
aF2018.7491914928944
aa(lp807
F176.259521484
aF211.87638855
aF3237.0806577793296
aF2019.1352998918944
aa(lp808
F175.188659668
aF212.254943848
aF3236.00979596333
aF2019.5138551898945
aa(lp809
F174.464050293
aF212.508407593
aF3235.28518658833
aF2019.7673189348943
aa(lp810
F173.362319946
aF212.902603149
aF3234.1834562413296
aF2020.1615144908944
aa(lp811
F172.25038147
aF213.307693481
aF3233.0715177653296
aF2020.5666048228945
aa(lp812
F171.330749512
aF213.629730225
aF3232.1518858073296
aF2020.8886415668944
aa(lp813
F170.036575317
aF214.089706421
aF3230.8577116123297
aF2021.3486177628945
aa(lp814
F169.302185059
aF214.346679688
aF3230.1233213543296
aF2021.6055910298944
aa(lp815
F168.187850952
aF214.742233276
aF3229.00898724733
aF2022.0011446178944
aa(lp816
F167.079879761
aF215.138092041
aF3227.90101605633
aF2022.3970033828944
aa(lp817
F166.011978149
aF215.527572632
aF3226.8331144443296
aF2022.7864839738945
aa(lp818
F165.159805298
aF215.834823608
aF3225.9809415933296
aF2023.0937349498945
aa(lp819
F164.188186646
aF216.207870483
aF3225.0093229413296
aF2023.4667818248945
aa(lp820
F163.513961792
aF216.435089111
aF3224.3350980873297
aF2023.6940004528944
aa(lp821
F162.273468018
aF216.84147644
aF3223.09460431333
aF2024.1003877818944
aa(lp822
F161.361129761
aF217.141433716
aF3222.18226605633
aF2024.4003450578944
aa(lp823
F160.494491577
aF217.428192139
aF3221.31562787233
aF2024.6871034808944
aa(lp824
F159.434295654
aF217.768463135
aF3220.2554319493297
aF2025.0273744768945
aa(lp825
F158.598724365
aF218.0440979
aF3219.41986066033
aF2025.3030092418944
aa(lp826
F157.526397705
aF218.385559082
aF3218.3475340003297
aF2025.6444704238943
aa(lp827
F156.642608643
aF218.662750244
aF3217.46374493833
aF2025.9216615858945
aa(lp828
F155.719833374
aF218.950927734
aF3216.5409696693296
aF2026.2098390758945
aa(lp829
F154.351150513
aF219.365539551
aF3215.1722868083298
aF2026.6244508928944
aa(lp830
F153.431930542
aF219.646575928
aF3214.2530668373297
aF2026.9054872698944
aa(lp831
F152.493179321
aF219.937637329
aF3213.3143156163296
aF2027.1965486708943
aa(lp832
F151.315093994
aF220.312133789
aF3212.13623028933
aF2027.5710451308944
aa(lp833
F150.377105713
aF220.611816406
aF3211.1982420083295
aF2027.8707277478943
aa(lp834
F149.236526489
aF220.985549927
aF3210.0576627843298
aF2028.2444612688944
aa(lp835
F148.089080811
aF221.343704224
aF3208.9102171063296
aF2028.6026155658944
aa(lp836
F147.112594604
aF221.652999878
aF3207.93373089933
aF2028.9119112198944
aa(lp837
F145.934509277
aF222.009750366
aF3206.7556455723297
aF2029.2686617078944
aa(lp838
F144.746170044
aF222.360107422
aF3205.5673063393297
aF2029.6190187638945
aa(lp839
F143.730361938
aF222.659133911
aF3204.5514982333298
aF2029.9180452528944
aa(lp840
F142.483093262
aF223.033630371
aF3203.3042295573296
aF2030.2925417128945
aa(lp841
F141.654891968
aF223.261276245
aF3202.4760282633297
aF2030.5201875868945
aa(lp842
F140.465652466
aF223.609649658
aF3201.2867887613297
aF2030.8685609998945
aa(lp843
F139.056274414
aF224.017807007
aF3199.87741070933
aF2031.2767183488945
aa(lp844
F138.270568848
aF224.256713867
aF3199.09170514333
aF2031.5156252088943
aa(lp845
F137.082107544
aF224.632705688
aF3197.9032438393297
aF2031.8916170298944
aa(lp846
F135.941070557
aF225.0
aF3196.7622068523297
aF2032.2589113418944
aa(lp847
F134.991867065
aF225.306228638
aF3195.8130033603297
aF2032.5651399798944
aa(lp848
F133.886260986
aF225.672195435
aF3194.7073972813296
aF2032.9311067768945
aa(lp849
F132.799102783
aF226.007476807
aF3193.6202390783296
aF2033.2663881488943
aa(lp850
F131.981536865
aF226.27281189
aF3192.80267316033
aF2033.5317232318944
aa(lp851
F130.946075439
aF226.605438232
aF3191.76721173433
aF2033.8643495738945
aa(lp852
F130.223464966
aF226.825317383
aF3191.0446012613297
aF2034.0842287248945
aa(lp853
F129.183929443
aF227.135116577
aF3190.00506573833
aF2034.3940279188944
aa(lp854
F128.174240112
aF227.440444946
aF3188.99537640733
aF2034.6993562878945
aa(lp855
F127.33732605
aF227.693466187
aF3188.15846234533
aF2034.9523775288944
aa(lp856
F126.36114502
aF227.993408203
aF3187.18228131533
aF2035.2523195448944
aa(lp857
F125.609970093
aF228.219696045
aF3186.4311063883297
aF2035.4786073868945
aa(lp858
F124.706954956
aF228.492645264
aF3185.52809125133
aF2035.7515566058944
aa(lp859
F123.741348267
aF228.779144287
aF3184.5624845623297
aF2036.0380556288944
aa(lp860
F122.917175293
aF229.013092041
aF3183.73831158833
aF2036.2720033828944
aa(lp861
F121.917068481
aF229.30015564
aF3182.73820477633
aF2036.5590669818944
aa(lp862
F121.12953949
aF229.52305603
aF3181.9506757853296
aF2036.7819673718943
aa(lp863
F120.360107422
aF229.753814697
aF3181.18124371733
aF2037.0127260388945
aa(lp864
F119.265808105
aF230.073287964
aF3180.0869444003297
aF2037.3321993058944
aa(lp865
F118.515991211
aF230.290328979
aF3179.3371275063296
aF2037.5492403208943
aa(lp866
F117.81237793
aF230.490509033
aF3178.6335142253297
aF2037.7494203748945
aa(lp867
F116.980712891
aF230.721679688
aF3177.80184918633
aF2037.9805910298944
aa(lp868
F116.173965454
aF230.946609497
aF3176.99510174933
aF2038.2055208388945
aa(lp869
F115.4972229
aF231.135070801
aF3176.31835919533
aF2038.3939821428944
aa(lp870
F114.713043213
aF231.358459473
aF3175.53417950833
aF2038.6173708148945
aa(lp871
F114.22480011
aF231.500930786
aF3175.04593640533
aF2038.7598421278944
aa(lp872
F113.391685486
aF231.763793945
aF3174.2128217813297
aF2039.0227052868945
aa(lp873
F112.713005066
aF232.000045776
aF3173.5341413613296
aF2039.2589571178944
aa(lp874
F112.269088745
aF232.178726196
aF3173.0902250403296
aF2039.4376375378945
aa(lp875
F111.640228271
aF232.485137939
aF3172.46136456633
aF2039.7440492808944
aa(lp876
F111.055267334
aF232.828704834
aF3171.8764036293296
aF2040.0876161758945
aa(lp877
F110.602256775
aF233.187179565
aF3171.42339307033
aF2040.4460909068944
aa(lp878
F110.143188477
aF233.629211426
aF3170.9643247723297
aF2040.8881227678944
aa(lp879
F109.812721252
aF234.056045532
aF3170.6338575473296
aF2041.3149568738945
aa(lp880
F109.575706482
aF234.521377563
aF3170.3968427773298
aF2041.7802889048944
aa(lp881
F109.403839111
aF235.193389893
aF3170.2249754063296
aF2042.4523012348943
aa(lp882
F109.385398865
aF235.598632812
aF3170.2065351603296
aF2042.8575441538944
aa(lp883
F109.459442139
aF236.165985107
aF3170.28057843433
aF2043.4248964488945
aa(lp884
F109.696029663
aF236.843948364
aF3170.5171659583298
aF2044.1028597058944
aa(lp885
F109.824821472
aF237.188461304
aF3170.64595776733
aF2044.4473726458943
aa(lp886
F110.129730225
aF237.731567383
aF3170.95086652033
aF2044.9904787248945
aa(lp887
F110.502563477
aF238.254089355
aF3171.3236997723297
aF2045.5130006968943
aa(lp888
F110.858558655
aF238.692672729
aF3171.6796949503296
aF2045.9515840708943
aa(lp889
F111.325744629
aF239.210617065
aF3172.1468809243297
aF2046.4695284068944
aa(lp890
F111.737609863
aF239.645233154
aF3172.55874615833
aF2046.9041444958943
aa(lp891
F112.264472961
aF240.17918396
aF3173.08560925633
aF2047.4380953018945
aa(lp892
F112.828948975
aF240.727905273
aF3173.65008527033
aF2047.9868166148945
aa(lp893
F113.319480896
aF241.186080933
aF3174.14061719133
aF2048.4449922748945
aa(lp894
F113.907981873
aF241.739776611
aF3174.72911816833
aF2048.998687952894
aa(lp895
F114.395347595
aF242.196334839
aF3175.21648389033
aF2049.4552461808944
aa(lp896
F114.885505676
aF242.667922974
aF3175.7066419713296
aF2049.926834315894
aa(lp897
F115.504600525
aF243.243164062
aF3176.32573682033
aF2050.502075403894
aa(lp898
F116.134284973
aF243.822860718
aF3176.9554212683297
aF2051.0817720598943
aa(lp899
F116.669113159
aF244.310470581
aF3177.49024945433
aF2051.5693819228945
aa(lp900
F117.332618713
aF244.90083313
aF3178.15375500833
aF2052.1597444718946
aa(lp901
F117.881195068
aF245.389312744
aF3178.70233136333
aF2052.6482240858945
aa(lp902
F118.538543701
aF245.965942383
aF3179.3596799963298
aF2053.2248537248943
aa(lp903
F119.214431763
aF246.548233032
aF3180.0355680583298
aF2053.8071443738945
aa(lp904
F119.786460876
aF247.04083252
aF3180.60759717133
aF2054.2997438618945
aa(lp905
F120.483901978
aF247.640670776
aF3181.30503827333
aF2054.8995821178946
aa(lp906
F120.960357666
aF248.054168701
aF3181.78149396133
aF2055.3130800428944
aa(lp907
F121.678161621
aF248.664886475
aF3182.49929791633
aF2055.9237978168944
aa(lp908
F122.385856628
aF249.264877319
aF3183.20699292333
aF2056.5237886608943
aa(lp909
F122.96862793
aF249.773849487
aF3183.7897642253297
aF2057.0327608288944
aa(lp910
F123.663955688
aF250.374404907
aF3184.4850919833298
aF2057.6333162488945
aa(lp911
F124.121810913
aF250.760635376
aF3184.9429472083298
aF2058.0195467178946
aa(lp912
F124.95274353
aF251.473922729
aF3185.77387982533
aF2058.7328340708946
aa(lp913
F125.567695618
aF251.999816895
aF3186.38883191333
aF2059.2587282368945
aa(lp914
F126.171005249
aF252.511489868
aF3186.9921415443296
aF2059.7704012098943
aa(lp915
F126.876266479
aF253.122894287
aF3187.69740277433
aF2060.3818056288947
aa(lp916
F127.453613281
aF253.625198364
aF3188.2747495763297
aF2060.8841097058944
aa(lp917
F128.028488159
aF254.132385254
aF3188.84962445433
aF2061.3912965958943
aa(lp918
F128.729675293
aF254.724731445
aF3189.55081158833
aF2061.9836427868945
aa(lp919
F129.307800293
aF255.228408813
aF3190.12893658833
aF2062.4873201548944
aa(lp920
F130.020843506
aF255.834182739
aF3190.8419798013297
aF2063.0930940808944
aa(lp921
F130.737594604
aF256.455413818
aF3191.55873089933
aF2063.7143251598945
aa(lp922
F131.335678101
aF256.976928711
aF3192.15681439633
aF2064.2358400528947
aa(lp923
F132.047164917
aF257.585449219
aF3192.8683012123297
aF2064.8443605608945
aa(lp924
F132.765136719
aF258.18762207
aF3193.58627301433
aF2065.4465334118945
aa(lp925
F133.368469238
aF258.682678223
aF3194.18960553333
aF2065.9415895648945
aa(lp926
F134.07963562
aF259.264678955
aF3194.9007719153296
aF2066.5235902968943
aa(lp927
F134.67817688
aF259.747955322
aF3195.49931317533
aF2067.0068666638945
aa(lp928
F135.411590576
aF260.341827393
aF3196.2327268713298
aF2067.6007387348945
aa(lp929
F136.028366089
aF260.825256348
aF3196.8495023843298
aF2068.0841676898945
aa(lp930
F136.790649414
aF261.408050537
aF3197.61178570933
aF2068.6669618788947
aa(lp931
F137.542861938
aF261.977905273
aF3198.3639982333298
aF2069.2368166148945
aa(lp932
F138.043121338
aF262.355529785
aF3198.8642576333295
aF2069.6144411268942
aa(lp933
F138.796951294
aF262.908874512
aF3199.6180875893297
aF2070.167785853894
aa(lp934
F139.435546875
aF263.371765137
aF3200.25668317033
aF2070.630676478894
aa(lp935
F140.096618652
aF263.849304199
aF3200.9177549473297
aF2071.1082155408944
aa(lp936
F140.883789062
aF264.405670166
aF3201.7049253573296
aF2071.6645815078946
aa(lp937
F141.668487549
aF264.939727783
aF3202.48962384433
aF2072.1986391248943
aa(lp938
F142.313781738
aF265.363006592
aF3203.13491803333
aF2072.6219179338946
aa(lp939
F143.097000122
aF265.874206543
aF3203.9181364173296
aF2073.1331178848945
aa(lp940
F143.757720947
aF266.296905518
aF3204.57885724233
aF2073.5558168598945
aa(lp941
F144.55166626
aF266.79776001
aF3205.3728025553296
aF2074.0566713518942
aa(lp942
F145.332336426
aF267.282226562
aF3206.1534727213298
aF2074.541137903894
aa(lp943
F145.854934692
aF267.599609375
aF3206.6760709873297
aF2074.8585207168944
aa(lp944
F146.61416626
aF268.053771973
aF3207.4353025553296
aF2075.3126833148945
aa(lp945
F147.307434082
aF268.468658447
aF3208.1285703773297
aF2075.7275697888945
aa(lp946
F147.855224609
aF268.788543701
aF3208.6763609043296
aF2076.0474550428944
aa(lp947
F148.464431763
aF269.138031006
aF3209.2855680583298
aF2076.3969423478943
aa(lp948
F149.029968262
aF269.460571289
aF3209.8511045573296
aF2076.719482630894
aa(lp949
F149.462112427
aF269.703033447
aF3210.28324872233
aF2076.9619447888945
aa(lp950
F149.955368042
aF269.970123291
aF3210.7765043373297
aF2077.2290346328946
aa(lp951
F150.419128418
aF270.220336914
aF3211.24026471333
aF2077.479248255894
aa(lp952
F150.790771484
aF270.407989502
aF3211.6119077793296
aF2077.6669008438944
aa(lp953
F151.216186523
aF270.615814209
aF3212.03732281833
aF2077.8747255508943
aa(lp954
F151.476806641
aF270.743621826
aF3212.29794293633
aF2078.0025331678944
aa(lp955
F151.912033081
aF270.958618164
aF3212.73316937633
aF2078.217529505894
aa(lp956
F152.278106689
aF271.136199951
aF3213.09924298433
aF2078.3951112928944
aa(lp957
F152.517700195
aF271.246765137
aF3213.33883649033
aF2078.505676478894
aa(lp958
F152.896636963
aF271.410644531
aF3213.7177732583295
aF2078.6695558728943
aa(lp959
F153.284988403
aF271.55960083
aF3214.10612469833
aF2078.8185121718943
aa(lp960
F153.603988647
aF271.678955078
aF3214.4251249423296
aF2078.9378664198944
aa(lp961
F153.923538208
aF271.794128418
aF3214.74467450333
aF2079.0530397598945
aa(lp962
F154.253707886
aF271.911743164
aF3215.07484418133
aF2079.170654505894
aa(lp963
F154.627212524
aF272.058898926
aF3215.4483488193296
aF2079.3178102678944
aa(lp964
F154.957427979
aF272.171600342
aF3215.7785642743297
aF2079.4305116838946
aa(lp965
F155.218566895
aF272.26361084
aF3216.03970319033
aF2079.5225221818946
aa(lp966
F155.509185791
aF272.348754883
aF3216.33032208633
aF2079.6076662248943
aa(lp967
F155.729309082
aF272.404510498
aF3216.5504453773297
aF2079.6634218398945
aa(lp968
F155.968551636
aF272.45602417
aF3216.78968793133
aF2079.7149355118945
aa(lp969
F156.183670044
aF272.493408203
aF3217.0048063393297
aF2079.7523195448944
aa(lp970
F156.328033447
aF272.514770508
aF3217.14916974233
aF2079.7736818498943
aa(lp971
F156.537414551
aF272.543121338
aF3217.3585508463298
aF2079.802032679894
aa(lp972
F156.77973938
aF272.574523926
aF3217.60087567533
aF2079.8334352678944
aa(lp973
F156.993103027
aF272.597015381
aF3217.8142393223297
aF2079.8559267228943
aa(lp974
F157.278381348
aF272.617645264
aF3218.09951764333
aF2079.8765566058946
aa(lp975
F157.604263306
aF272.639221191
aF3218.42539960133
aF2079.8981325328946
aa(lp976
F157.892150879
aF272.646820068
aF3218.7132871743297
aF2079.9057314098945
aa(lp977
F158.272125244
aF272.647033691
aF3219.09326153933
aF2079.9059450328946
aa(lp978
F158.610214233
aF272.630249023
aF3219.43135052833
aF2079.8891603648945
aa(lp979
F159.021118164
aF272.608703613
aF3219.84225445933
aF2079.8676149548946
aa(lp980
F159.43901062
aF272.570648193
aF3220.2601469153296
aF2079.8295595348945
aa(lp981
F159.714065552
aF272.539245605
aF3220.53520184733
aF2079.7981569468943
aa(lp982
F160.141723633
aF272.476867676
aF3220.9628599283296
aF2079.7357790178944
aa(lp983
F160.560180664
aF272.407928467
aF3221.38131695933
aF2079.6668398088946
aa(lp984
F160.91078186
aF272.337493896
aF3221.73191815533
aF2079.5964052378945
aa(lp985
F161.328186035
aF272.239868164
aF3222.1493223303296
aF2079.498779505894
aa(lp986
F161.669723511
aF272.146484375
aF3222.49085980633
aF2079.4053957168944
aa(lp987
F162.088348389
aF272.007293701
aF3222.90948468433
aF2079.2662050428944
aa(lp988
F162.435195923
aF271.876953125
aF3223.2563322183296
aF2079.1358644668944
aa(lp989
F162.777145386
aF271.738067627
aF3223.59828168133
aF2078.9969789688944
aa(lp990
F163.185424805
aF271.568969727
aF3224.0065611003297
aF2078.8278810688944
aa(lp991
F163.527023315
aF271.435668945
aF3224.3481596103297
aF2078.6945802868945
aa(lp992
F163.981811523
aF271.254364014
aF3224.80294781833
aF2078.5132753558946
aa(lp993
F164.364944458
aF271.088256836
aF3225.18608075333
aF2078.3471681778947
aa(lp994
F164.7681427
aF270.918243408
aF3225.5892789953296
aF2078.1771547498943
aa(lp995
F165.297790527
aF270.657104492
aF3226.1189268223297
aF2077.9160158338946
aa(lp996
F165.60244751
aF270.509094238
aF3226.4235838053296
aF2077.7680055798946
aa(lp997
F166.093887329
aF270.288146973
aF3226.91502362433
aF2077.5470583148945
aa(lp998
F166.591110229
aF270.060821533
aF3227.41224652433
aF2077.3197328748943
aa(lp999
F167.013641357
aF269.871398926
aF3227.8347776523296
aF2077.1303102678944
aa(lp1000
F167.530548096
aF269.63079834
aF3228.35168439133
aF2076.8897096818946
aa(lp1001
F168.026153564
aF269.389831543
aF3228.84728985933
aF2076.6487428848945
aa(lp1002
F168.45085144
aF269.177581787
aF3229.2719877353297
aF2076.4364931288947
aa(lp1003
F168.950653076
aF268.917205811
aF3229.7717893713298
aF2076.176117152894
aa(lp1004
F169.451263428
aF268.657104492
aF3230.2723997233297
aF2075.9160158338946
aa(lp1005
F169.861587524
aF268.444946289
aF3230.6827238193296
aF2075.703857630894
aa(lp1006
F170.351318359
aF268.183532715
aF3231.1724546543296
aF2075.4424440568946
aa(lp1007
F170.678588867
aF268.012359619
aF3231.49972516233
aF2075.2712709608945
aa(lp1008
F171.16583252
aF267.750671387
aF3231.98696881533
aF2075.009582728894
aa(lp1009
F171.714096069
aF267.441162109
aF3232.5352323643297
aF2074.7000734508943
aa(lp1010
F172.014160156
aF267.269348145
aF3232.8352964513297
aF2074.5282594868945
aa(lp1011
F172.439926147
aF267.017425537
aF3233.2610624423296
aF2074.2763368788947
aa(lp1012
F172.839004517
aF266.771240234
aF3233.6601408123297
aF2074.0301515758943
aa(lp1013
F173.168029785
aF266.565460205
aF3233.9891660803296
aF2073.8243715468943
aa(lp1014
F173.54524231
aF266.312286377
aF3234.36637860533
aF2073.5711977188944
aa(lp1015
F173.78704834
aF266.144317627
aF3234.60818463533
aF2073.4032289688944
aa(lp1016
F174.156784058
aF265.888000488
aF3234.97792035333
aF2073.1469118298946
aa(lp1017
F174.503479004
aF265.644714355
aF3235.3246152993297
aF2072.9036256968943
aa(lp1018
F174.785812378
aF265.432342529
aF3235.60694867333
aF2072.6912538708943
aa(lp1019
F175.102783203
aF265.182434082
aF3235.9239194983297
aF2072.4413454238943
aa(lp1020
F175.305984497
aF265.010742188
aF3236.1271207923296
aF2072.2696535298946
aa(lp1021
F175.643051147
aF264.692749023
aF3236.4641874423296
aF2071.9516603648945
aa(lp1022
F175.879135132
aF264.417816162
aF3236.70027142733
aF2071.6767275038947
aa(lp1023
F176.01083374
aF264.231079102
aF3236.83197003533
aF2071.4899904438944
aa(lp1024
F176.174423218
aF263.942504883
aF3236.9955595133297
aF2071.2014162248943
aa(lp1025
F176.305862427
aF263.644195557
aF3237.12699872233
aF2070.9031068988943
aa(lp1026
F176.378982544
aF263.388183594
aF3237.2001188393297
aF2070.6470949358945
aa(lp1027
F176.443191528
aF263.076477051
aF3237.26432782333
aF2070.3353883928944
aa(lp1028
F176.462280273
aF262.763977051
aF3237.28341656833
aF2070.0228883928944
aa(lp1029
F176.432556152
aF262.491424561
aF3237.2536924473297
aF2069.750335902894
aa(lp1030
F176.346099854
aF262.170288086
aF3237.1672361493297
aF2069.4291994278947
aa(lp1031
F176.217788696
aF261.889251709
aF3237.0389249913296
aF2069.1481630508943
aa(lp1032
F175.985031128
aF261.537017822
aF3236.80616742333
aF2068.7959291638945
aa(lp1033
F175.740493774
aF261.226196289
aF3236.5616300693296
aF2068.485107630894
aa(lp1034
F175.469970703
aF260.938476562
aF3236.2911069983297
aF2068.197387903894
aa(lp1035
F175.119689941
aF260.627410889
aF3235.94082623633
aF2067.8863222308946
aa(lp1036
F174.791793823
aF260.371032715
aF3235.6129301183296
aF2067.6299440568946
aa(lp1037
F174.369400024
aF260.077453613
aF3235.1905363193296
aF2067.3363649548946
aa(lp1038
F173.912521362
aF259.786376953
aF3234.73365765733
aF2067.0452882948944
aa(lp1039
F173.517532349
aF259.551330566
aF3234.3386686443296
aF2066.8102419078946
aa(lp1040
F173.024459839
aF259.283843994
aF3233.8455961343298
aF2066.5427553358945
aa(lp1041
F172.491790771
aF259.023406982
aF3233.31292706633
aF2066.2823183238943
aa(lp1042
F172.042144775
aF258.821502686
aF3232.86328107033
aF2066.080414027894
aa(lp1043
F171.580276489
aF258.618896484
aF3232.4014127843298
aF2065.8778078258943
aa(lp1044
F171.023681641
aF258.386962891
aF3231.84481793633
aF2065.6458742328946
aa(lp1045
F170.555847168
aF258.197723389
aF3231.37698346333
aF2065.4566347308946
aa(lp1046
F169.959960938
aF257.961242676
aF3230.78109723333
aF2065.2201540178944
aa(lp1047
F169.46546936
aF257.769775391
aF3230.28660565533
aF2065.0286867328946
aa(lp1048
F168.960800171
aF257.571868896
aF3229.7819364663296
aF2064.8307802378945
aa(lp1049
F168.248657227
aF257.28805542
aF3229.0697935223297
aF2064.5469667618945
aa(lp1050
F167.848419189
aF257.130584717
aF3228.66955548433
aF2064.3894960588946
aa(lp1051
F167.237319946
aF256.88067627
aF3228.0584562413296
aF2064.1395876118945
aa(lp1052
F166.625076294
aF256.628479004
aF3227.4462125893297
aF2063.8873903458943
aa(lp1053
F166.110351562
aF256.415802002
aF3226.9314878573296
aF2063.6747133438944
aa(lp1054
F165.47694397
aF256.154510498
aF3226.2980802653296
aF2063.4134218398945
aa(lp1055
F164.824264526
aF255.887481689
aF3225.64540082133
aF2063.1463930308946
aa(lp1056
F164.27355957
aF255.662521362
aF3225.09469586533
aF2062.9214327038944
aa(lp1057
F163.719604492
aF255.434509277
aF3224.54074078733
aF2062.6934206188944
aa(lp1058
F162.923324585
aF255.111740112
aF3223.74446088033
aF2062.3706514538944
aa(lp1059
F162.46043396
aF254.921661377
aF3223.28157025533
aF2062.1805727188944
aa(lp1060
F161.764480591
aF254.641311646
aF3222.5856168863297
aF2061.9002229878943
aa(lp1061
F161.056365967
aF254.361602783
aF3221.87750226233
aF2061.6205141248943
aa(lp1062
F160.458389282
aF254.122009277
aF3221.27952557733
aF2061.3809206188944
aa(lp1063
F159.72013855
aF253.816741943
aF3220.54127484533
aF2061.0756532848945
aa(lp1064
F158.957702637
aF253.492507935
aF3219.7788389323296
aF2060.7514192768945
aa(lp1065
F158.31539917
aF253.219421387
aF3219.13653546533
aF2060.478332728894
aa(lp1066
F157.546829224
aF252.875930786
aF3218.3679655193296
aF2060.1348421278944
aa(lp1067
F156.760055542
aF252.547058105
aF3217.5811918373297
aF2059.8059694468943
aa(lp1068
F156.082733154
aF252.271865845
aF3216.9038694493297
aF2059.5307771868943
aa(lp1069
F155.286239624
aF251.943054199
aF3216.1073759193296
aF2059.2019655408944
aa(lp1070
F154.750778198
aF251.729309082
aF3215.5719144933296
aF2058.9882204238943
aa(lp1071
F153.92098999
aF251.402450562
aF3214.74212628533
aF2058.6613619038944
aa(lp1072
F153.126586914
aF251.08140564
aF3213.94772320933
aF2058.3403169818944
aa(lp1073
F152.47819519
aF250.811904907
aF3213.2993314853297
aF2058.0708162488945
aa(lp1074
F151.686660767
aF250.479568481
aF3212.5077970623297
aF2057.7384798228945
aa(lp1075
F150.93170166
aF250.169723511
aF3211.7528379553296
aF2057.4286348528944
aa(lp1076
F150.006027222
aF249.781433105
aF3210.8271635173296
aF2057.0403444468943
aa(lp1077
F149.219024658
aF249.448852539
aF3210.0401609533296
aF2056.7077638808946
aa(lp1078
F148.454956055
aF249.125610352
aF3209.2760923503297
aF2056.3845216938944
aa(lp1079
F147.50491333
aF248.719207764
aF3208.3260496253297
aF2055.9781191058946
aa(lp1080
F146.556838989
aF248.313079834
aF3207.3779752843298
aF2055.5719911758943
aa(lp1081
F145.800125122
aF247.979644775
aF3206.6212614173296
aF2055.2385561168944
aa(lp1082
F144.910079956
aF247.593597412
aF3205.73121625133
aF2054.8525087538947
aa(lp1083
F144.027374268
aF247.202301025
aF3204.84851056333
aF2054.4612123668944
aa(lp1084
F143.337524414
aF246.89704895
aF3204.15866070933
aF2054.155960291894
aa(lp1085
F142.486557007
aF246.520187378
aF3203.30769330233
aF2053.7790987198946
aa(lp1086
F141.794235229
aF246.204925537
aF3202.61537152433
aF2053.4638368788947
aa(lp1087
F140.983657837
aF245.839523315
aF3201.80479413233
aF2053.0984346568944
aa(lp1088
F140.168518066
aF245.470626831
aF3200.98965436133
aF2052.7295381728945
aa(lp1089
F139.630172729
aF245.228210449
aF3200.45130902433
aF2052.4871217908944
aa(lp1090
F138.703292847
aF244.814682007
aF3199.5244291423296
aF2052.0735933488945
aa(lp1091
F138.034057617
aF244.505584717
aF3198.85519391233
aF2051.7644960588946
aa(lp1092
F137.378921509
aF244.202880859
aF3198.20005780433
aF2051.4617922008943
aa(lp1093
F136.475540161
aF243.784942627
aF3197.29667645633
aF2051.0438539688944
aa(lp1094
F135.954238892
aF243.538223267
aF3196.7753751873297
aF2050.7971346088943
aa(lp1095
F135.192840576
aF243.172714233
aF3196.0139768713298
aF2050.4316255748945
aa(lp1096
F134.323898315
aF242.752914429
aF3195.1450346103297
aF2050.0118257708946
aa(lp1097
F133.839645386
aF242.51423645
aF3194.66078168133
aF2049.773147791894
aa(lp1098
F133.095687866
aF242.146606445
aF3193.9168241613297
aF2049.4055177868945
aa(lp1099
F132.374023438
aF241.784011841
aF3193.19515973333
aF2049.0429231828944
aa(lp1100
F131.776168823
aF241.48147583
aF3192.5973051183296
aF2048.7403871718943
aa(lp1101
F131.070251465
aF241.122573853
aF3191.89138776033
aF2048.3814851948946
aa(lp1102
F130.501327515
aF240.827758789
aF3191.3224638103297
aF2048.0866701308946
aa(lp1103
F129.825149536
aF240.480712891
aF3190.64628583133
aF2047.7396242328944
aa(lp1104
F129.25769043
aF240.187103271
aF3190.0788267253297
aF2047.4460146128945
aa(lp1105
F128.697097778
aF239.894226074
aF3189.51823407333
aF2047.1531374158944
aa(lp1106
F127.916030884
aF239.484786987
aF3188.73716717933
aF2046.7436983288944
aa(lp1107
F127.48223877
aF239.253128052
aF3188.30337506533
aF2046.5120393938944
aa(lp1108
F126.845855713
aF238.914825439
aF3187.66699200833
aF2046.1737367808944
aa(lp1109
F126.251152039
aF238.594528198
aF3187.0722883343296
aF2045.8534395398945
aa(lp1110
F125.790649414
aF238.352050781
aF3186.61178570933
aF2045.6109621228943
aa(lp1111
F125.272949219
aF238.070266724
aF3186.09408551433
aF2045.3291780658944
aa(lp1112
F124.792388916
aF237.806777954
aF3185.61352521133
aF2045.0656892958943
aa(lp1113
F124.420860291
aF237.597595215
aF3185.2419965863296
aF2044.8565065568944
aa(lp1114
F124.002281189
aF237.367584229
aF3184.8234174843296
aF2044.6264955708943
aa(lp1115
F123.677955627
aF237.183364868
aF3184.4990919223296
aF2044.4422762098943
aa(lp1116
F123.367263794
aF237.012374878
aF3184.1884000893297
aF2044.2712862198944
aa(lp1117
F123.012001038
aF236.817825317
aF3183.83313733333
aF2044.0767366588943
aa(lp1118
F122.779449463
aF236.696121216
aF3183.60058575833
aF2043.9550325578944
aa(lp1119
F122.380264282
aF236.48324585
aF3183.20140057733
aF2043.7421571918944
aa(lp1120
F122.012611389
aF236.302963257
aF3182.83374768433
aF2043.5618745988945
aa(lp1121
F121.764434814
aF236.173355103
aF3182.58557110933
aF2043.4322664448944
aa(lp1122
F121.389129639
aF235.964263916
aF3182.21026593433
aF2043.2231752578944
aa(lp1123
F121.062522888
aF235.802276611
aF3181.8836591833297
aF2043.0611879528944
aa(lp1124
F120.716064453
aF235.647399902
aF3181.5372007483297
aF2042.9063112438944
aa(lp1125
F120.31426239
aF235.457641602
aF3181.1353986853296
aF2042.7165529438944
aa(lp1126
F119.922668457
aF235.244247437
aF3180.7438047523297
aF2042.5031587788944
aa(lp1127
F119.606933594
aF235.074401855
aF3180.42806988933
aF2042.3333131968943
aa(lp1128
F119.238449097
aF234.868011475
aF3180.0595853923296
aF2042.1269228168944
aa(lp1129
F118.934745789
aF234.673919678
aF3179.7558820843296
aF2041.9328310198944
aa(lp1130
F118.574996948
aF234.439071655
aF3179.3961332433296
aF2041.6979829968943
aa(lp1131
F118.22996521
aF234.232147217
aF3179.05110150533
aF2041.4910585588943
aa(lp1132
F118.003234863
aF234.089767456
aF3178.82437115833
aF2041.3486787978945
aa(lp1133
F117.683822632
aF233.88041687
aF3178.50495892733
aF2041.1393282118945
aa(lp1134
F117.395469666
aF233.66897583
aF3178.2166059613296
aF2040.9278871718943
aa(lp1135
F117.154266357
aF233.491546631
aF3177.9754026523296
aF2040.7504579728943
aa(lp1136
F116.895095825
aF233.279556274
aF3177.7162321203296
aF2040.5384676158944
aa(lp1137
F116.705093384
aF233.088790894
aF3177.52622967933
aF2040.3477022358943
aa(lp1138
F116.483612061
aF232.858078003
aF3177.3047483563296
aF2040.1169893448944
aa(lp1139
F116.298439026
aF232.614639282
aF3177.1195753213296
aF2039.8735506238945
aa(lp1140
F116.171607971
aF232.407699585
aF3176.9927442663297
aF2039.6666109268945
aa(lp1141
F116.048278809
aF232.138397217
aF3176.8694151043296
aF2039.3973085588943
aa(lp1142
F115.974479675
aF231.920883179
aF3176.79561597033
aF2039.1797945208943
aa(lp1143
F115.904449463
aF231.635681152
aF3176.72558575833
aF2038.8945924938944
aa(lp1144
F115.883766174
aF231.357879639
aF3176.7049024693297
aF2038.6167909808944
aa(lp1145
F115.887535095
aF231.12197876
aF3176.70867139033
aF2038.3808901018945
aa(lp1146
F115.940322876
aF230.84614563
aF3176.76145917133
aF2038.1050569718943
aa(lp1147
F115.993621826
aF230.652496338
aF3176.8147581213298
aF2037.9114076798944
aa(lp1148
F116.135917664
aF230.32585144
aF3176.9570539593296
aF2037.5847627818944
aa(lp1149
F116.300354004
aF230.042572021
aF3177.1214902993297
aF2037.3014833628945
aa(lp1150
F116.434165955
aF229.852005005
aF3177.25530225033
aF2037.1109163468943
aa(lp1151
F116.65737915
aF229.576583862
aF3177.47851544533
aF2036.8354952038944
aa(lp1152
F116.909683228
aF229.293731689
aF3177.73081952333
aF2036.5526430308944
aa(lp1153
F117.132766724
aF229.062652588
aF3177.9539030193296
aF2036.3215639298944
aa(lp1154
F117.428596497
aF228.779876709
aF3178.2497327923297
aF2036.0387880508945
aa(lp1155
F117.633293152
aF228.585510254
aF3178.45442944733
aF2035.8444215958943
aa(lp1156
F118.007209778
aF228.239761353
aF3178.8283460733296
aF2035.4986726948944
aa(lp1157
F118.336700439
aF227.913574219
aF3179.15783673433
aF2035.1724855608945
aa(lp1158
F118.550559998
aF227.694793701
aF3179.37169629333
aF2034.9537050428944
aa(lp1159
F118.870330811
aF227.350036621
aF3179.6914671063296
aF2034.6089479628945
aa(lp1160
F119.191841125
aF226.990783691
aF3180.0129774203297
aF2034.2496950328944
aa(lp1161
F119.462654114
aF226.673126221
aF3180.28379040933
aF2033.9320375628945
aa(lp1162
F119.790672302
aF226.286956787
aF3180.61180859733
aF2033.5458681288944
aa(lp1163
F120.123527527
aF225.894638062
aF3180.94466382233
aF2033.1535494038944
aa(lp1164
F120.343132019
aF225.630340576
aF3181.16426831433
aF2032.8892519178944
aa(lp1165
F120.743110657
aF225.154541016
aF3181.56424695233
aF2032.4134523578944
aa(lp1166
F120.970108032
aF224.883132935
aF3181.79124432733
aF2032.1420442768945
aa(lp1167
F121.343765259
aF224.413650513
aF3182.16490155433
aF2031.6725618548944
aa(lp1168
F121.671585083
aF223.994735718
aF3182.49272137833
aF2031.2536470598943
aa(lp1169
F121.884513855
aF223.710372925
aF3182.70565015033
aF2030.9692842668944
aa(lp1170
F122.200942993
aF223.286026001
aF3183.0220792883297
aF2030.5449373428944
aa(lp1171
F122.508155823
aF222.856079102
aF3183.3292921183297
aF2030.1149904438944
aa(lp1172
F122.747817993
aF222.513366699
aF3183.5689542883297
aF2029.7722780408944
aa(lp1173
F123.026870728
aF222.109603882
aF3183.84800702333
aF2029.3685152238945
aa(lp1174
F123.243370056
aF221.792358398
aF3184.06450635133
aF2029.0512697398945
aa(lp1175
F123.501312256
aF221.40663147
aF3184.3224485513297
aF2028.6655428118945
aa(lp1176
F123.763908386
aF221.017623901
aF3184.5850446813297
aF2028.2765352428944
aa(lp1177
F123.978370667
aF220.694992065
aF3184.79950696233
aF2027.9539034068944
aa(lp1178
F124.216583252
aF220.316970825
aF3185.0377195473297
aF2027.5758821668944
aa(lp1179
F124.371261597
aF220.071151733
aF3185.1923978923296
aF2027.3300630748945
aa(lp1180
F124.612312317
aF219.699707031
aF3185.43344861233
aF2026.9586183728943
aa(lp1181
F124.862693787
aF219.331314087
aF3185.6838300823297
aF2026.5902254288944
aa(lp1182
F125.034690857
aF219.092926025
aF3185.8558271523298
aF2026.3518373668944
aa(lp1183
F125.30682373
aF218.723999023
aF3186.1279600253297
aF2025.9829103648945
aa(lp1184
F125.602844238
aF218.392318726
aF3186.42398053333
aF2025.6512300678944
aa(lp1185
F125.873970032
aF218.124603271
aF3186.69510632733
aF2025.3835146128945
aa(lp1186
F126.205245972
aF217.824508667
aF3187.0263822673296
aF2025.0834200088943
aa(lp1187
F126.43586731
aF217.631744385
aF3187.25700360533
aF2024.8906557268945
aa(lp1188
F126.878509521
aF217.324707031
aF3187.69964581633
aF2024.5836183728943
aa(lp1189
F127.216163635
aF217.11895752
aF3188.03729993033
aF2024.3778688618945
aa(lp1190
F127.571128845
aF216.939880371
aF3188.39226514033
aF2024.1987917128945
aa(lp1191
F128.029464722
aF216.738494873
aF3188.8506010173296
aF2023.9974062148945
aa(lp1192
F128.499862671
aF216.589233398
aF3189.3209989663296
aF2023.8481447398945
aa(lp1193
F128.908081055
aF216.477493286
aF3189.7292173503297
aF2023.7364046278944
aa(lp1194
F129.455123901
aF216.383987427
aF3190.27626019633
aF2023.6428987688944
aa(lp1195
F130.039627075
aF216.322616577
aF3190.8607633703296
aF2023.5815279188944
aa(lp1196
F130.555587769
aF216.27557373
aF3191.3767240643297
aF2023.5344850718943
aa(lp1197
F131.232345581
aF216.237228394
aF3192.05348187633
aF2023.4961397358943
aa(lp1198
F131.633148193
aF216.249160767
aF3192.45428448833
aF2023.5080721088943
aa(lp1199
F132.300247192
aF216.283584595
aF3193.1213834873297
aF2023.5424959368945
aa(lp1200
F133.079269409
aF216.361450195
aF3193.90040570433
aF2023.6203615368945
aa(lp1201
F133.534545898
aF216.426651001
aF3194.35568219333
aF2023.6855623428944
aa(lp1202
F134.178726196
aF216.540664673
aF3194.9998624913296
aF2023.7995760148945
aa(lp1203
F134.635894775
aF216.641342163
aF3195.45703107033
aF2023.9002535048944
aa(lp1204
F135.32144165
aF216.81942749
aF3196.14257794533
aF2024.0783388318944
aa(lp1205
F136.000335693
aF217.010177612
aF3196.82147198833
aF2024.2690889538944
aa(lp1206
F136.449325562
aF217.146438599
aF3197.27046185733
aF2024.4053499408944
aa(lp1207
F137.119659424
aF217.363586426
aF3197.94079571933
aF2024.6224977678944
aa(lp1208
F137.668167114
aF217.554214478
aF3198.4893034093298
aF2024.8131258198944
aa(lp1209
F138.338729858
aF217.796829224
aF3199.15986615333
aF2025.0557405658944
aa(lp1210
F139.020141602
aF218.053863525
aF3199.8412778973297
aF2025.3127748668944
aa(lp1211
F139.600769043
aF218.270217896
aF3200.42190533833
aF2025.5291292378945
aa(lp1212
F140.314651489
aF218.525222778
aF3201.1357877843298
aF2025.7841341198944
aa(lp1213
F141.044921875
aF218.781707764
aF3201.86605817033
aF2026.0406191058944
aa(lp1214
F141.724975586
aF219.023590088
aF3202.5461118813296
aF2026.2825014298944
aa(lp1215
F142.571975708
aF219.341262817
aF3203.39311200333
aF2026.6001741588943
aa(lp1216
F143.250595093
aF219.58253479
aF3204.0717313883297
aF2026.8414461318944
aa(lp1217
F144.053451538
aF219.859405518
aF3204.8745878333298
aF2027.1183168598943
aa(lp1218
F144.689956665
aF220.066864014
aF3205.5110929603297
aF2027.3257753558944
aa(lp1219
F145.358123779
aF220.288024902
aF3206.1792600743297
aF2027.5469362438944
aa(lp1220
F146.273651123
aF220.581481934
aF3207.09478741833
aF2027.8403932758945
aa(lp1221
F146.797698975
aF220.739654541
aF3207.61883527033
aF2027.9985658828944
aa(lp1222
F147.580749512
aF220.970062256
aF3208.4018858073296
aF2028.2289735978943
aa(lp1223
F148.380615234
aF221.19631958
aF3209.2017515293296
aF2028.4552309218943
aa(lp1224
F149.047348022
aF221.380508423
aF3209.8684843173296
aF2028.6394197648945
aa(lp1225
F149.863845825
aF221.602523804
aF3210.6849821203296
aF2028.8614351458943
aa(lp1226
F150.68913269
aF221.822113037
aF3211.5102689853297
aF2029.0810243788944
aa(lp1227
F151.533050537
aF222.045135498
aF3212.35418683233
aF2029.3040468398945
aa(lp1228
F152.228439331
aF222.230117798
aF3213.04957562633
aF2029.4890291398945
aa(lp1229
F152.924423218
aF222.421630859
aF3213.7455595133297
aF2029.6805422008945
aa(lp1230
F153.618942261
aF222.623382568
aF3214.44007855633
aF2029.8822939098945
aa(lp1231
F154.440490723
aF222.85357666
aF3215.26162701833
aF2030.1124880018945
aa(lp1232
F155.250808716
aF223.076873779
aF3216.0719450113297
aF2030.3357851208943
aa(lp1233
F155.92678833
aF223.269439697
aF3216.7479246253297
aF2030.5283510388945
aa(lp1234
F156.621887207
aF223.465896606
aF3217.4430235023297
aF2030.7248079478945
aa(lp1235
F157.304519653
aF223.666473389
aF3218.12565594833
aF2030.9253847308944
aa(lp1236
F158.120178223
aF223.897796631
aF3218.94131451833
aF2031.1567079728943
aa(lp1237
F158.9324646
aF224.120117188
aF3219.75360089533
aF2031.3790285298944
aa(lp1238
F159.615814209
aF224.307556152
aF3220.4369505043296
aF2031.5664674938944
aa(lp1239
F160.441329956
aF224.525665283
aF3221.26246625133
aF2031.7845766248945
aa(lp1240
F161.285049438
aF224.746429443
aF3222.1061857333298
aF2032.0053407848945
aa(lp1241
F161.985519409
aF224.936584473
aF3222.80665570433
aF2032.1954958148945
aa(lp1242
F162.835159302
aF225.157974243
aF3223.65629559733
aF2032.4168855848943
aa(lp1243
F163.399230957
aF225.302841187
aF3224.2203672523297
aF2032.5617525288944
aa(lp1244
F164.382507324
aF225.558105469
aF3225.20364361933
aF2032.8170168108945
aa(lp1245
F165.204391479
aF225.776931763
aF3226.02552777433
aF2033.0358431048944
aa(lp1246
F165.742492676
aF225.917419434
aF3226.5636289713298
aF2033.1763307758945
aa(lp1247
F166.545349121
aF226.12890625
aF3227.36648541633
aF2033.3878175918944
aa(lp1248
F167.345092773
aF226.333190918
aF3228.16622906833
aF2033.5921022598945
aa(lp1249
F168.004333496
aF226.491897583
aF3228.82546979133
aF2033.7508089248945
aa(lp1250
F168.785308838
aF226.67868042
aF3229.6064451333295
aF2033.9375917618945
aa(lp1251
F169.555038452
aF226.857345581
aF3230.37617474733
aF2034.1162569228945
aa(lp1252
F170.192596436
aF227.008758545
aF3231.0137327313296
aF2034.2676698868945
aa(lp1253
F170.967559814
aF227.190673828
aF3231.78869610933
aF2034.4495851698944
aa(lp1254
F171.742156982
aF227.367874146
aF3232.5632932773296
aF2034.6267854878945
aa(lp1255
F172.381698608
aF227.512145996
aF3233.20283490333
aF2034.7710573378945
aa(lp1256
F173.148376465
aF227.674163818
aF3233.96951276033
aF2034.9330751598945
aa(lp1257
F173.648544312
aF227.777145386
aF3234.46968060733
aF2035.0360567278944
aa(lp1258
F174.501159668
aF227.955245972
aF3235.32229596333
aF2035.2141573138945
aa(lp1259
F175.223754883
aF228.090240479
aF3236.0448911783296
aF2035.3491518208943
aa(lp1260
F175.707107544
aF228.180374146
aF3236.5282438393297
aF2035.4392854878945
aa(lp1261
F176.427078247
aF228.312255859
aF3237.2482145423296
aF2035.5711672008945
aa(lp1262
F177.128448486
aF228.432662964
aF3237.9495847813296
aF2035.6915743058944
aa(lp1263
F177.708526611
aF228.526794434
aF3238.5296629063296
aF2035.7857057758945
aa(lp1264
F178.406814575
aF228.629241943
aF3239.2279508703296
aF2035.8881532848945
aa(lp1265
F178.875717163
aF228.696243286
aF3239.6968534583298
aF2035.9551546278944
aa(lp1266
F179.572952271
aF228.78678894
aF3240.3940885663296
aF2036.0457002818944
aa(lp1267
F180.278366089
aF228.869430542
aF3241.0995023843298
aF2036.1283418838943
aa(lp1268
F180.852432251
aF228.938446045
aF3241.67356854633
aF2036.1973573868945
aa(lp1269
F181.526062012
aF229.02053833
aF3242.3471983073296
aF2036.2794496718943
aa(lp1270
F182.18572998
aF229.097930908
aF3243.0068662753297
aF2036.3568422498945
aa(lp1271
F182.734512329
aF229.158706665
aF3243.55564862433
aF2036.4176180068944
aa(lp1272
F183.381546021
aF229.22718811
aF3244.2026823163296
aF2036.4860994518945
aa(lp1273
F184.038925171
aF229.291290283
aF3244.8600614663296
aF2036.5502016248945
aa(lp1274
F184.59236145
aF229.350341797
aF3245.4134977453296
aF2036.6092531388945
aa(lp1275
F185.234786987
aF229.41619873
aF3246.05592328233
aF2036.6751100718943
aa(lp1276
F185.749725342
aF229.466415405
aF3246.57086163733
aF2036.7253267468943
aa(lp1277
F186.274475098
aF229.513702393
aF3247.09561139333
aF2036.7726137348943
aa(lp1278
F187.010513306
aF229.579315186
aF3247.83164960133
aF2036.8382265278944
aa(lp1279
F187.417373657
aF229.61126709
aF3248.23850995233
aF2036.8701784318944
aa(lp1280
F187.986465454
aF229.65687561
aF3248.80760174933
aF2036.9157869518945
aa(lp1281
F188.519302368
aF229.701263428
aF3249.3404386633297
aF2036.9601747698944
aa(lp1282
F188.929733276
aF229.739746094
aF3249.75086957133
aF2036.9986574358945
aa(lp1283
F189.419021606
aF229.795623779
aF3250.24015790133
aF2037.0545351208943
aa(lp1284
F189.910003662
aF229.877655029
aF3250.73113995733
aF2037.1365663708943
aa(lp1285
F190.316390991
aF229.962539673
aF3251.1375272863297
aF2037.2214510148945
aa(lp1286
F190.808258057
aF230.102371216
aF3251.6293943523297
aF2037.3612825578944
aa(lp1287
F191.216217041
aF230.226669312
aF3252.03735333633
aF2037.4855806538944
aa(lp1288
F191.61390686
aF230.364700317
aF3252.43504315533
aF2037.6236116588943
aa(lp1289
F192.110321045
aF230.545516968
aF3252.93145734033
aF2037.8044283098943
aa(lp1290
F192.515350342
aF230.687728882
aF3253.33648663733
aF2037.9466402238945
aa(lp1291
F193.004699707
aF230.875473022
aF3253.8258360023297
aF2038.1343843638945
aa(lp1292
F193.409469604
aF231.046203613
aF3254.23060589933
aF2038.3051149548944
aa(lp1293
F193.879394531
aF231.271087646
aF3254.7005308263297
aF2038.5299989878945
aa(lp1294
F194.307983398
aF231.509048462
aF3255.12911969333
aF2038.7679598038944
aa(lp1295
F194.673706055
aF231.717498779
aF3255.4948423503297
aF2038.9764101208943
aa(lp1296
F195.065536499
aF231.988616943
aF3255.8866727943296
aF2039.2475282848945
aa(lp1297
F195.44519043
aF232.269134521
aF3256.2663267253297
aF2039.5280458628945
aa(lp1298
F195.752624512
aF232.502502441
aF3256.5737608073296
aF2039.7614137828944
aa(lp1299
F196.092544556
aF232.795608521
aF3256.91368085133
aF2040.0545198628945
aa(lp1300
F196.299514771
aF232.999282837
aF3257.1206510663296
aF2040.2581941788944
aa(lp1301
F196.631759644
aF233.381591797
aF3257.4528959393297
aF2040.6405031388945
aa(lp1302
F196.813217163
aF233.670974731
aF3257.6343534583298
aF2040.9298860728945
aa(lp1303
F196.957870483
aF233.991699219
aF3257.77900677833
aF2041.2506105608945
aa(lp1304
F197.098953247
aF234.382400513
aF3257.9200895423296
aF2041.6413118548944
aa(lp1305
F197.18321228
aF234.728256226
aF3258.00434857533
aF2041.9871675678944
aa(lp1306
F197.255630493
aF235.133026123
aF3258.0767667883297
aF2042.3919374648945
aa(lp1307
F197.274139404
aF235.54838562
aF3258.0952756993297
aF2042.8072969618945
aa(lp1308
F197.258666992
aF235.891983032
aF3258.07980328733
aF2043.1508943738945
aa(lp1309
F197.22428894
aF236.299316406
aF3258.0454252353297
aF2043.5582277478943
aa(lp1310
F197.152618408
aF236.716934204
aF3257.9737547033296
aF2043.9758455458943
aa(lp1311
F197.074768066
aF237.0675354
aF3257.89590436133
aF2044.3264467418944
aa(lp1312
F196.982177734
aF237.503692627
aF3257.8033140293296
aF2044.7626039688944
aa(lp1313
F196.90397644
aF237.866241455
aF3257.7251127353297
aF2045.1251527968943
aa(lp1314
F196.810043335
aF238.310928345
aF3257.63117963033
aF2045.5698396868945
aa(lp1315
F196.729446411
aF238.68145752
aF3257.55058270633
aF2045.9403688618945
aa(lp1316
F196.652191162
aF239.064682007
aF3257.47332745733
aF2046.3235933488945
aa(lp1317
F196.556564331
aF239.528656006
aF3257.37770062633
aF2046.7875673478943
aa(lp1318
F196.455688477
aF240.004760742
aF3257.2768247723297
aF2047.2636720838943
aa(lp1319
F196.380737305
aF240.40725708
aF3257.2018736003297
aF2047.6661684218943
aa(lp1320
F196.299606323
aF240.899414062
aF3257.1207426183296
aF2048.158325403894
aa(lp1321
F196.240951538
aF241.23274231
aF3257.0620878333298
aF2048.4916536518945
aa(lp1322
F196.1512146
aF241.734466553
aF3256.97235089533
aF2048.9933778948944
aa(lp1323
F196.03994751
aF242.322555542
aF3256.8610838053296
aF2049.5814668838943
aa(lp1324
F195.976516724
aF242.656829834
aF3256.7976530193296
aF2049.9157411758943
aa(lp1325
F195.882949829
aF243.167633057
aF3256.70408612433
aF2050.4265443988943
aa(lp1326
F195.788497925
aF243.676742554
aF3256.60963422033
aF2050.9356538958946
aa(lp1327
F195.692550659
aF244.182434082
aF3256.51368695433
aF2051.4413454238943
aa(lp1328
F195.615356445
aF244.600112915
aF3256.43649274033
aF2051.8590242568944
aa(lp1329
F195.539718628
aF245.010864258
aF3256.36085492333
aF2052.2697755998943
aa(lp1330
F195.473373413
aF245.41960144
aF3256.2945097083298
aF2052.6785127818944
aa(lp1331
F195.39491272
aF245.915054321
aF3256.2160490153296
aF2053.1739656628943
aa(lp1332
F195.329650879
aF246.404006958
aF3256.1507871743297
aF2053.6629182998945
aa(lp1333
F195.276077271
aF246.790512085
aF3256.0972135663296
aF2054.0494234268945
aa(lp1334
F195.207763672
aF247.247970581
aF3256.02889996733
aF2054.5068819228945
aa(lp1335
F195.150787354
aF247.629821777
aF3255.9719236493297
aF2054.8887331188944
aa(lp1336
F195.077804565
aF248.085144043
aF3255.8989408603297
aF2055.3440553848945
aa(lp1337
F195.019775391
aF248.443283081
aF3255.84091168633
aF2055.7021944228945
aa(lp1338
F194.939041138
aF248.881362915
aF3255.7601774333298
aF2056.1402742568944
aa(lp1339
F194.84588623
aF249.345672607
aF3255.6670225253297
aF2056.6045839488943
aa(lp1340
F194.786987305
aF249.662445068
aF3255.6081236003297
aF2056.9213564098945
aa(lp1341
F194.688552856
aF250.162445068
aF3255.50968915133
aF2057.4213564098945
aa(lp1342
F194.582244873
aF250.669143677
aF3255.40338116833
aF2057.9280550188946
aa(lp1343
F194.497817993
aF251.07598877
aF3255.3189542883297
aF2058.3349001118945
aa(lp1344
F194.400253296
aF251.553390503
aF3255.2213895913296
aF2058.8123018448946
aa(lp1345
F194.324356079
aF251.95489502
aF3255.14549237433
aF2059.2138063618945
aa(lp1346
F194.248016357
aF252.359939575
aF3255.0691526523296
aF2059.618850916894
aa(lp1347
F194.140274048
aF252.928619385
aF3254.9614103433296
aF2060.1875307268942
aa(lp1348
F194.077774048
aF253.255706787
aF3254.8989103433296
aF2060.5146181288947
aa(lp1349
F193.988998413
aF253.736373901
aF3254.8101347083298
aF2060.9952852428946
aa(lp1350
F193.888717651
aF254.316375732
aF3254.70985394633
aF2061.5752870738943
aa(lp1351
F193.832855225
aF254.636108398
aF3254.65399152033
aF2061.8950197398945
aa(lp1352
F193.713638306
aF255.217788696
aF3254.53477460133
aF2062.4767000378943
aa(lp1353
F193.633163452
aF255.634735107
aF3254.45429974733
aF2062.8936464488943
aa(lp1354
F193.55909729
aF256.036865234
aF3254.3802335853297
aF2063.2957765758943
aa(lp1355
F193.465042114
aF256.527435303
aF3254.2861784093298
aF2063.7863466448944
aa(lp1356
F193.37159729
aF257.018920898
aF3254.1927335853297
aF2064.2778322398945
aa(lp1357
F193.292251587
aF257.439147949
aF3254.11338788233
aF2064.6980592908944
aa(lp1358
F193.204818726
aF257.922576904
aF3254.02595502133
aF2065.1814882458943
aa(lp1359
F193.132507324
aF258.334838867
aF3253.95364361933
aF2065.5937502088946
aa(lp1360
F193.044265747
aF258.840545654
aF3253.8654020423296
aF2066.0994569958943
aa(lp1361
F192.958480835
aF259.352508545
aF3253.77961713033
aF2066.6114198868945
aa(lp1362
F192.887237549
aF259.765960693
aF3253.70837384433
aF2067.0248720348945
aa(lp1363
F192.811477661
aF260.255004883
aF3253.63261395633
aF2067.5139162248943
aa(lp1364
F192.75553894
aF260.65234375
aF3253.5766752353297
aF2067.9112550918944
aa(lp1365
F192.697570801
aF261.125427246
aF3253.5187070963298
aF2068.3843385878945
aa(lp1366
F192.633834839
aF261.585540771
aF3253.4549711343298
aF2068.8444521128945
aa(lp1367
F192.595336914
aF261.878356934
aF3253.41647320933
aF2069.1372682758943
aa(lp1368
F192.548477173
aF262.320068359
aF3253.3696134683296
aF2069.5789797008943
aa(lp1369
F192.498031616
aF262.770172119
aF3253.3191679113297
aF2070.0290834608945
aa(lp1370
F192.456253052
aF263.129577637
aF3253.27738934733
aF2070.388488978894
aa(lp1371
F192.414108276
aF263.541229248
aF3253.23524457133
aF2070.8001405898945
aa(lp1372
F192.382492065
aF263.886352539
aF3253.2036283603297
aF2071.145263880894
aa(lp1373
F192.345932007
aF264.311157227
aF3253.16706830233
aF2071.5700685688944
aa(lp1374
F192.314834595
aF264.718139648
aF3253.1359708903296
aF2071.9770509898945
aa(lp1375
F192.299819946
aF264.983734131
aF3253.1209562413296
aF2072.2426454728943
aa(lp1376
F192.276611328
aF265.382965088
aF3253.0977476233297
aF2072.641876429894
aa(lp1377
F192.257797241
aF265.770263672
aF3253.0789335363297
aF2073.0291750138945
aa(lp1378
F192.248474121
aF266.031707764
aF3253.06961041633
aF2073.2906191058946
aa(lp1379
F192.234191895
aF266.416748047
aF3253.05532819033
aF2073.6756593888945
aa(lp1380
F192.22253418
aF266.735137939
aF3253.0436704753297
aF2073.9940492808946
aa(lp1381
F192.208984375
aF267.120300293
aF3253.03012067033
aF2074.3792116348945
aa(lp1382
F192.197265625
aF267.493469238
aF3253.01840192033
aF2074.7523805798946
aa(lp1383
F192.189346313
aF267.738311768
aF3253.0104826083298
aF2074.9972231098945
aa(lp1384
F192.173171997
aF268.106079102
aF3252.9943082923296
aF2075.3649904438944
aa(lp1385
F192.147262573
aF268.469818115
aF3252.9683988683296
aF2075.7287294568946
aa(lp1386
F192.118148804
aF268.765228271
aF3252.93928509933
aF2076.0241396128945
aa(lp1387
F192.062255859
aF269.159454346
aF3252.8833921543296
aF2076.4183656878945
aa(lp1388
F192.025909424
aF269.381652832
aF3252.84704571933
aF2076.6405641738943
aa(lp1389
F191.954147339
aF269.705108643
aF3252.7752836343298
aF2076.9640199848945
aa(lp1390
F191.876953125
aF270.015136719
aF3252.69808942033
aF2077.2740480608945
aa(lp1391
F191.792648315
aF270.265899658
aF3252.6137846103297
aF2077.5248109998943
aa(lp1392
F191.678405762
aF270.559387207
aF3252.4995420573296
aF2077.8182985488943
aa(lp1393
F191.571914673
aF270.804046631
aF3252.3930509683296
aF2078.0629579728943
aa(lp1394
F191.446456909
aF271.041625977
aF3252.26759320433
aF2078.3005373188944
aa(lp1395
F191.261383057
aF271.321075439
aF3252.0825193523297
aF2078.5799867808946
aa(lp1396
F191.056732178
aF271.589385986
aF3251.8778684733297
aF2078.848297327894
aa(lp1397
F190.905639648
aF271.763458252
aF3251.72677594333
aF2079.0223695938944
aa(lp1398
F190.603942871
aF272.055908203
aF3251.42507916633
aF2079.3148195448944
aa(lp1399
F190.417388916
aF272.219604492
aF3251.23852521133
aF2079.4785158338946
aa(lp1400
F190.116607666
aF272.439788818
aF3250.93774396133
aF2079.6987001598945
aa(lp1401
F189.779953003
aF272.647949219
aF3250.60108929833
aF2079.9068605608945
aa(lp1402
F189.447845459
aF272.817138672
aF3250.2689817543296
aF2080.0760500138945
aa(lp1403
F189.016555786
aF272.98815918
aF3249.83769208133
aF2080.2470705218943
aa(lp1404
F188.65838623
aF273.118865967
aF3249.4795225253297
aF2080.3777773088946
aa(lp1405
F188.220504761
aF273.253173828
aF3249.04164105633
aF2080.5120851698944
aa(lp1406
F187.775588989
aF273.370452881
aF3248.5967252843298
aF2080.6293642228943
aa(lp1407
F187.40032959
aF273.460418701
aF3248.22146588533
aF2080.7193300428944
aa(lp1408
F186.937850952
aF273.553070068
aF3247.75898724733
aF2080.8119814098945
aa(lp1409
F186.626373291
aF273.614044189
aF3247.44750958633
aF2080.8729555308946
aa(lp1410
F186.086074829
aF273.71005249
aF3246.90721112433
aF2080.9689638318946
aa(lp1411
F185.585342407
aF273.774902344
aF3246.40647870233
aF2081.0338136858945
aa(lp1412
F185.248886108
aF273.815093994
aF3246.07002240333
aF2081.0740053358945
aa(lp1413
F184.704772949
aF273.862457275
aF3245.52590924433
aF2081.1213686168944
aa(lp1414
F184.128585815
aF273.898986816
aF3244.9497221103297
aF2081.1578981578946
aa(lp1415
F183.633285522
aF273.916473389
aF3244.4544218173296
aF2081.1753847308946
aa(lp1416
F183.018173218
aF273.92489624
aF3243.8393095133297
aF2081.1838075818946
aa(lp1417
F182.510299683
aF273.927062988
aF3243.33143597833
aF2081.1859743298946
aa(lp1418
F181.895431519
aF273.924530029
aF3242.7165678143297
aF2081.1834413708943
aa(lp1419
F181.280960083
aF273.920532227
aF3242.10209637833
aF2081.1794435688944
aa(lp1420
F180.770065308
aF273.916992188
aF3241.59120160333
aF2081.1759035298946
aa(lp1421
F180.15020752
aF273.915802002
aF3240.97134381533
aF2081.1747133438944
aa(lp1422
F179.526367188
aF273.910522461
aF3240.34750348333
aF2081.1694338028947
aa(lp1423
F179.006866455
aF273.906646729
aF3239.8280027503297
aF2081.1655580708943
aa(lp1424
F178.490509033
aF273.896850586
aF3239.3116453283296
aF2081.1557619278947
aa(lp1425
F177.966995239
aF273.882995605
aF3238.7881315343298
aF2081.1419069468943
aa(lp1426
F177.335723877
aF273.864624023
aF3238.1568601723297
aF2081.1235353648945
aa(lp1427
F176.699020386
aF273.841827393
aF3237.52015668133
aF2081.1007387348945
aa(lp1428
F176.150924683
aF273.821258545
aF3236.97206097833
aF2081.0801698868945
aa(lp1429
F175.486923218
aF273.787078857
aF3236.3080595133297
aF2081.0459901988943
aa(lp1430
F174.927200317
aF273.754425049
aF3235.7483366123297
aF2081.0133363908944
aa(lp1431
F174.238800049
aF273.711761475
aF3235.05993634433
aF2080.9706728168944
aa(lp1432
F173.650512695
aF273.674346924
aF3234.47164899033
aF2080.9332582658944
aa(lp1433
F172.935089111
aF273.630157471
aF3233.7562254063296
aF2080.8890688128945
aa(lp1434
F172.210174561
aF273.581726074
aF3233.0313108563296
aF2080.8406374158944
aa(lp1435
F171.593933105
aF273.533508301
aF3232.4150694003297
aF2080.7924196428944
aa(lp1436
F170.972137451
aF273.479736328
aF3231.7932737463298
aF2080.7386476698944
aa(lp1437
F170.211990356
aF273.411865234
aF3231.03312665133
aF2080.6707765758943
aa(lp1438
F169.433273315
aF273.341552734
aF3230.2544096103297
aF2080.6004640758943
aa(lp1439
F168.777084351
aF273.276031494
aF3229.59822064633
aF2080.5349428358945
aa(lp1440
F167.981918335
aF273.192932129
aF3228.80305463033
aF2080.4518434708943
aa(lp1441
F167.454177856
aF273.135772705
aF3228.27531415133
aF2080.3946840468943
aa(lp1442
F166.504516602
aF273.031433105
aF3227.3256528973297
aF2080.2903444468943
aa(lp1443
F165.758972168
aF272.946624756
aF3226.58010846333
aF2080.2055360978943
aa(lp1444
F165.008590698
aF272.858581543
aF3225.8297269933296
aF2080.1174928848945
aa(lp1445
F164.11505127
aF272.743347168
aF3224.93618756533
aF2080.0022585098945
aa(lp1446
F163.383392334
aF272.64352417
aF3224.2045286293296
aF2079.9024355118945
aa(lp1447
F162.507064819
aF272.515777588
aF3223.3282011143297
aF2079.774688929894
aa(lp1448
F161.630447388
aF272.383483887
aF3222.4515836833298
aF2079.642395228894
aa(lp1449
F161.039871216
aF272.29019165
aF3221.8610075113297
aF2079.5491029918944
aa(lp1450
F160.011993408
aF272.129333496
aF3220.8331297033296
aF2079.3882448378945
aa(lp1451
F159.409286499
aF272.022186279
aF3220.2304227943296
aF2079.2810976208943
aa(lp1452
F158.499572754
aF271.855438232
aF3219.3207090493297
aF2079.1143495738943
aa(lp1453
F157.593948364
aF271.694335938
aF3218.4150846593298
aF2078.9532472798946
aa(lp1454
F156.836669922
aF271.561859131
aF3217.65780621733
aF2078.8207704728943
aa(lp1455
F155.965576172
aF271.411499023
aF3216.78671246733
aF2078.6704103648945
aa(lp1456
F155.394836426
aF271.313568115
aF3216.2159727213298
aF2078.5724794568946
aa(lp1457
F154.380981445
aF271.132598877
aF3215.20211774033
aF2078.3915102188944
aa(lp1458
F153.490753174
aF270.976257324
aF3214.31188946933
aF2078.2351686658944
aa(lp1459
F152.90788269
aF270.874816895
aF3213.7290189853297
aF2078.1337282368945
aa(lp1460
F152.046447754
aF270.722686768
aF3212.8675840493297
aF2077.9815981098945
aa(lp1461
F151.196289062
aF270.574859619
aF3212.0174253573296
aF2077.8337709608945
aa(lp1462
F150.485900879
aF270.449676514
aF3211.3070371743297
aF2077.7085878558946
aa(lp1463
F149.604904175
aF270.296875
aF3210.42604047033
aF2077.5557863418944
aa(lp1464
F149.019485474
aF270.202148438
aF3209.8406217693296
aF2077.4610597798946
aa(lp1465
F148.11315918
aF270.054534912
aF3208.9342954753297
aF2077.3134462538947
aa(lp1466
F147.228408813
aF269.912963867
aF3208.0495451083298
aF2077.1718752088946
aa(lp1467
F146.514556885
aF269.805267334
aF3207.3356931803296
aF2077.0641786758943
aa(lp1468
F145.677444458
aF269.681304932
aF3206.49858075333
aF2076.9402162738943
aa(lp1469
F144.845077515
aF269.56048584
aF3205.6662138103297
aF2076.8193971818946
aa(lp1470
F144.157272339
aF269.463104248
aF3204.9784086343298
aF2076.7220155898945
aa(lp1471
F143.348129272
aF269.348388672
aF3204.1692655673296
aF2076.6073000138945
aa(lp1472
F142.695617676
aF269.253814697
aF3203.5167539713298
aF2076.5127260388945
aa(lp1473
F141.938568115
aF269.141204834
aF3202.75970441033
aF2076.4001161758943
aa(lp1474
F141.313140869
aF269.04977417
aF3202.13427716433
aF2076.3086855118945
aa(lp1475
F140.694580078
aF268.960296631
aF3201.5157163733297
aF2076.2192079728943
aa(lp1476
F139.973114014
aF268.856689453
aF3200.79425030933
aF2076.1156007948944
aa(lp1477
F139.362792969
aF268.757080078
aF3200.18392926433
aF2076.0159914198944
aa(lp1478
F138.624603271
aF268.635803223
aF3199.44573956633
aF2075.8947145648945
aa(lp1479
F137.897567749
aF268.516998291
aF3198.7187040443296
aF2075.7759096328946
aa(lp1480
F137.298492432
aF268.418609619
aF3198.1196287273297
aF2075.6775209608945
aa(lp1481
F136.584762573
aF268.297454834
aF3197.4058988683296
aF2075.5563661758943
aa(lp1482
F135.993942261
aF268.193389893
aF3196.81507855633
aF2075.4523012348945
aa(lp1483
F135.411972046
aF268.085327148
aF3196.2331083413296
aF2075.3442384898945
aa(lp1484
F134.714233398
aF267.953277588
aF3195.53536969333
aF2075.212188929894
aa(lp1485
F134.031997681
aF267.817901611
aF3194.85313397633
aF2075.076812952894
aa(lp1486
F133.508911133
aF267.711151123
aF3194.3300474283296
aF2074.9700624648945
aa(lp1487
F132.931060791
aF267.590087891
aF3193.75219708633
aF2074.8489992328946
aa(lp1488
F132.476882935
aF267.48916626
aF3193.29801923033
aF2074.7480776018942
aa(lp1489
F131.948226929
aF267.365905762
aF3192.76936322433
aF2074.624817103894
aa(lp1490
F131.429977417
aF267.236419678
aF3192.2511137123297
aF2074.4953310198944
aa(lp1491
F131.014541626
aF267.132965088
aF3191.83567792133
aF2074.391876429894
aa(lp1492
F130.549133301
aF267.005981445
aF3191.3702695963298
aF2074.2648927868945
aa(lp1493
F130.186676025
aF266.910797119
aF3191.00781232033
aF2074.1697084608945
aa(lp1494
F129.84135437
aF266.815643311
aF3190.6624906653296
aF2074.074554652894
aa(lp1495
F129.367767334
aF266.676605225
aF3190.1889036293296
aF2073.9355165668944
aa(lp1496
F129.091247559
aF266.5831604
aF3189.9123838543296
aF2073.8420717418944
aa(lp1497
F128.657073975
aF266.433074951
aF3189.47821027033
aF2073.6919862928944
aa(lp1498
F128.207778931
aF266.249481201
aF3189.02891522633
aF2073.5083925428944
aa(lp1499
F127.805862427
aF266.108093262
aF3188.62699872233
aF2073.367004603894
aa(lp1500
F127.342605591
aF265.912902832
aF3188.1637418863297
aF2073.1718141738943
aa(lp1501
F126.865493774
aF265.721130371
aF3187.6866300693296
aF2072.9800417128945
aa(lp1502
F126.490501404
aF265.546325684
aF3187.31163769933
aF2072.8052370258943
aa(lp1503
F126.063011169
aF265.378265381
aF3186.88414746433
aF2072.6371767228943
aa(lp1504
F125.72051239
aF265.263977051
aF3186.5416486853296
aF2072.5228883928944
aa(lp1505
F125.337524414
aF265.12210083
aF3186.15866070933
aF2072.3810121718943
aa(lp1506
F125.029220581
aF265.004516602
aF3185.85035687633
aF2072.2634279438944
aa(lp1507
F124.711097717
aF264.893890381
aF3185.53223401233
aF2072.1528017228943
aa(lp1508
F124.343986511
aF264.763305664
aF3185.1651228063297
aF2072.022217005894
aa(lp1509
F124.0417099
aF264.660491943
aF3184.86284619533
aF2071.9194032848945
aa(lp1510
F123.678535461
aF264.531860352
aF3184.49967175633
aF2071.7907716938944
aa(lp1511
F123.320800781
aF264.396911621
aF3184.1419370763297
aF2071.6558229628945
aa(lp1512
F123.010299683
aF264.270355225
aF3183.83143597833
aF2071.5292665668944
aa(lp1513
F122.666366577
aF264.10256958
aF3183.48750287233
aF2071.3614809218943
aa(lp1514
F122.383728027
aF263.967285156
aF3183.2048643223297
aF2071.2261964978943
aa(lp1515
F122.114097595
aF263.81539917
aF3182.93523389033
aF2071.0743105118945
aa(lp1516
F121.788513184
aF263.606567383
aF3182.6096494793296
aF2070.8654787248943
aa(lp1517
F121.459197998
aF263.387298584
aF3182.28033429333
aF2070.6462099258943
aa(lp1518
F121.193939209
aF263.190124512
aF3182.0150755043296
aF2070.449035853894
aa(lp1519
F120.891021729
aF262.931427002
aF3181.7121580243297
aF2070.1903383438944
aa(lp1520
F120.710617065
aF262.763824463
aF3181.5317533603297
aF2070.022735804894
aa(lp1521
F120.449172974
aF262.493255615
aF3181.2703092693296
aF2069.7521669568946
aa(lp1522
F120.176940918
aF262.171203613
aF3180.99807721333
aF2069.4301149548946
aa(lp1523
F120.034362793
aF261.981536865
aF3180.85549908833
aF2069.2404482068946
aa(lp1524
F119.82459259
aF261.661102295
aF3180.64572888533
aF2068.9200136368945
aa(lp1525
F119.634910583
aF261.332763672
aF3180.4560468783297
aF2068.5916750138945
aa(lp1526
F119.491188049
aF261.068786621
aF3180.3123243443297
aF2068.3276979628945
aa(lp1527
F119.342033386
aF260.739044189
aF3180.1631696813297
aF2067.9979555308946
aa(lp1528
F119.217948914
aF260.393218994
aF3180.0390852093296
aF2067.6521303358945
aa(lp1529
F119.129646301
aF260.10836792
aF3179.9507825963296
aF2067.3672792618945
aa(lp1530
F119.031684875
aF259.765075684
aF3179.8528211703297
aF2067.0239870258943
aa(lp1531
F118.96421051
aF259.465881348
aF3179.78534680533
aF2066.7247926898945
aa(lp1532
F118.906898499
aF259.166870117
aF3179.7280347943297
aF2066.4257814588946
aa(lp1533
F118.845024109
aF258.800048828
aF3179.6661604043297
aF2066.0589601698944
aa(lp1534
F118.792205811
aF258.485137939
aF3179.6133421063296
aF2065.7440492808946
aa(lp1535
F118.725715637
aF258.118408203
aF3179.54685193233
aF2065.3773195448944
aa(lp1536
F118.665740967
aF257.795928955
aF3179.48687726233
aF2065.0548402968943
aa(lp1537
F118.583000183
aF257.394378662
aF3179.4041364783297
aF2064.6532900038947
aa(lp1538
F118.494949341
aF256.97845459
aF3179.3160856363297
aF2064.2373659318946
aa(lp1539
F118.430625916
aF256.695739746
aF3179.2517622113296
aF2063.9546510878945
aa(lp1540
F118.338279724
aF256.256256104
aF3179.15941601933
aF2063.5151674458943
aa(lp1541
F118.22883606
aF255.738815308
aF3179.04997235533
aF2062.9977266498945
aa(lp1542
F118.169975281
aF255.441253662
aF3178.99111157633
aF2062.7001650038947
aa(lp1543
F118.067115784
aF254.991943359
aF3178.88825207933
aF2062.2508547008943
aa(lp1544
F117.963195801
aF254.524475098
aF3178.7843320963298
aF2061.7833864398945
aa(lp1545
F117.88734436
aF254.145355225
aF3178.70848065533
aF2061.4042665668944
aa(lp1546
F117.789535522
aF253.705307007
aF3178.6106718173296
aF2060.9642183488945
aa(lp1547
F117.707107544
aF253.340866089
aF3178.5282438393297
aF2060.5997774308944
aa(lp1548
F117.605056763
aF252.907943726
aF3178.4261930583298
aF2060.1668550678946
aa(lp1549
F117.494743347
aF252.502349854
aF3178.31587964233
aF2059.7612611958943
aa(lp1550
F117.402198792
aF252.170608521
aF3178.22333508733
aF2059.4295198628943
aa(lp1551
F117.282272339
aF251.773757935
aF3178.1034086343298
aF2059.0326692768945
aa(lp1552
F117.173500061
aF251.443099976
aF3177.99463635633
aF2058.7020113178946
aa(lp1553
F117.071075439
aF251.125808716
aF3177.89221173433
aF2058.3847200578944
aa(lp1554
F116.927444458
aF250.689041138
aF3177.74858075333
aF2057.9479524798944
aa(lp1555
F116.827377319
aF250.381866455
aF3177.6485136143297
aF2057.6407777968943
aa(lp1556
F116.722999573
aF250.078125
aF3177.5441358683297
aF2057.3370363418944
aa(lp1557
F116.598640442
aF249.721908569
aF3177.41977673733
aF2056.9808199108943
aa(lp1558
F116.467788696
aF249.354782104
aF3177.2889249913296
aF2056.6136934458946
aa(lp1559
F116.367012024
aF249.047134399
aF3177.1881483193297
aF2056.306045740894
aa(lp1560
F116.251441956
aF248.677444458
aF3177.0725782513296
aF2055.9363557998945
aa(lp1561
F116.184272766
aF248.436416626
aF3177.00540906133
aF2055.6953279678946
aa(lp1562
F116.097816467
aF248.08833313
aF3176.91895276233
aF2055.3472444718946
aa(lp1563
F116.023757935
aF247.753082275
aF3176.84489423033
aF2055.0119936168944
aa(lp1564
F115.988807678
aF247.475906372
aF3176.8099439733296
aF2054.7348177138942
aa(lp1565
F115.972442627
aF247.16078186
aF3176.7935789223297
aF2054.4196932018945
aa(lp1566
F115.983283997
aF246.854125977
aF3176.8044202923297
aF2054.1130373188944
aa(lp1567
F116.016448975
aF246.605453491
aF3176.83758527033
aF2053.8643648328944
aa(lp1568
F116.093162537
aF246.304473877
aF3176.9142988323297
aF2053.5633852188944
aa(lp1569
F116.172874451
aF246.04675293
aF3176.99401074633
aF2053.3056642718943
aa(lp1570
F116.272651672
aF245.788574219
aF3177.0937879673297
aF2053.0474855608945
aa(lp1571
F116.457832336
aF245.450866699
aF3177.27896863133
aF2052.7097780408944
aa(lp1572
F116.599105835
aF245.269104004
aF3177.42024213033
aF2052.5280153458943
aa(lp1573
F116.845581055
aF245.0206604
aF3177.6667173503297
aF2052.2795717418944
aa(lp1574
F117.110816956
aF244.789001465
aF3177.9319532513296
aF2052.0479128068946
aa(lp1575
F117.357376099
aF244.615921021
aF3178.1785123943296
aF2051.8748323628943
aa(lp1576
F117.683517456
aF244.415557861
aF3178.50465375133
aF2051.674469202894
aa(lp1577
F118.063659668
aF244.246032715
aF3178.88479596333
aF2051.5049440568946
aa(lp1578
F118.409820557
aF244.113616943
aF3179.2309568523297
aF2051.3725282848945
aa(lp1579
F118.857566833
aF243.972244263
aF3179.6787031283297
aF2051.2311556048944
aa(lp1580
F119.257469177
aF243.88772583
aF3180.07860547233
aF2051.1466371718943
aa(lp1581
F119.763168335
aF243.805221558
aF3180.58430463033
aF2051.0641328998945
aa(lp1582
F120.190162659
aF243.74899292
aF3181.01129895433
aF2051.0079042618945
aa(lp1583
F120.750717163
aF243.686889648
aF3181.5718534583298
aF2050.9458009898945
aa(lp1584
F121.346107483
aF243.655761719
aF3182.16724377833
aF2050.9146730608945
aa(lp1585
F121.751296997
aF243.640045166
aF3182.5724332923296
aF2050.8989565078946
aa(lp1586
F122.39024353
aF243.616790771
aF3183.21137982533
aF2050.8757021128945
aa(lp1587
F123.032211304
aF243.611465454
aF3183.85334759933
aF2050.8703767958946
aa(lp1588
F123.573257446
aF243.611083984
aF3184.3943937413296
aF2050.8699953258943
aa(lp1589
F124.227012634
aF243.613830566
aF3185.0481489293297
aF2050.8727419078946
aa(lp1590
F124.771812439
aF243.619476318
aF3185.5929487343296
aF2050.8783876598945
aa(lp1591
F125.316230774
aF243.632049561
aF3186.1373670693297
aF2050.890960902894
aa(lp1592
F125.984428406
aF243.651000977
aF3186.80556470133
aF2050.9099123188944
aa(lp1593
F126.67035675
aF243.66960144
aF3187.4914930453297
aF2050.9285127818944
aa(lp1594
F127.255241394
aF243.693405151
aF3188.07637768933
aF2050.9523164928946
aa(lp1595
F127.975395203
aF243.72442627
aF3188.79653149833
aF2050.9833376118945
aa(lp1596
F128.704040527
aF243.759979248
aF3189.5251768223297
aF2051.0188905898945
aa(lp1597
F129.335281372
aF243.78263855
aF3190.1564176673296
aF2051.0415498918946
aa(lp1598
F130.08039856
aF243.811126709
aF3190.90153485533
aF2051.0700380508943
aa(lp1599
F130.584899902
aF243.823059082
aF3191.4060361973297
aF2051.0819704238943
aa(lp1600
F131.511230469
aF243.844207764
aF3192.33236676433
aF2051.1031191058946
aa(lp1601
F132.189910889
aF243.858459473
aF3193.01104718433
aF2051.1173708148945
aa(lp1602
F132.88861084
aF243.870925903
aF3193.70974713533
aF2051.1298372448946
aa(lp1603
F133.890106201
aF243.871810913
aF3194.7112424963298
aF2051.1307222548944
aa(lp1604
F134.48614502
aF243.872741699
aF3195.30728131533
aF2051.1316530408944
aa(lp1605
F135.396240234
aF243.872131348
aF3196.2173765293296
aF2051.1310426898945
aa(lp1606
F136.30255127
aF243.862960815
aF3197.12368756533
aF2051.1218721568944
aa(lp1607
F137.08934021
aF243.852157593
aF3197.91047650533
aF2051.1110689348943
aa(lp1608
F138.038955688
aF243.836212158
aF3198.8600919833298
aF2051.0951234998943
aa(lp1609
F138.983505249
aF243.820114136
aF3199.8046415443296
aF2051.0790254778944
aa(lp1610
F139.754089355
aF243.803695679
aF3200.5752256503297
aF2051.0626070208946
aa(lp1611
F140.691513062
aF243.780319214
aF3201.51264935733
aF2051.0392305558944
aa(lp1612
F141.491363525
aF243.752410889
aF3202.31249982033
aF2051.0113222308946
aa(lp1613
F142.441818237
aF243.713195801
aF3203.26295453233
aF2050.9721071428944
aa(lp1614
F143.219985962
aF243.673217773
aF3204.04112225733
aF2050.9321291148945
aa(lp1615
F144.00163269
aF243.638778687
aF3204.8227689853297
aF2050.8976900288944
aa(lp1616
F144.924468994
aF243.597610474
aF3205.74560528933
aF2050.856521815894
aa(lp1617
F145.850128174
aF243.567169189
aF3206.67126446933
aF2050.8260805308946
aa(lp1618
F146.611114502
aF243.544952393
aF3207.4322507973297
aF2050.8038637348945
aa(lp1619
F147.512924194
aF243.521438599
aF3208.3340604893297
aF2050.780349940894
aa(lp1620
F148.141372681
aF243.50100708
aF3208.96250897633
aF2050.7599184218943
aa(lp1621
F149.249923706
aF243.473617554
aF3210.07106000133
aF2050.7325288958946
aa(lp1622
F150.203994751
aF243.445709229
aF3211.02513104633
aF2050.7046205708943
aa(lp1623
F150.98210144
aF243.423965454
aF3211.8032377353297
aF2050.6828767958946
aa(lp1624
F151.898284912
aF243.391693115
aF3212.71942120733
aF2050.6506044568946
aa(lp1625
F152.642227173
aF243.365646362
aF3213.4633634683296
aF2050.6245577038944
aa(lp1626
F153.500244141
aF243.327072144
aF3214.32138043633
aF2050.5859834858943
aa(lp1627
F154.346389771
aF243.284179688
aF3215.1675260663296
aF2050.5430910298946
aa(lp1628
F155.161392212
aF243.242111206
aF3215.98252850733
aF2050.5010225478945
aa(lp1629
F156.001556396
aF243.208190918
aF3216.82269269133
aF2050.4671022598945
aa(lp1630
F156.83757019
aF243.158203125
aF3217.6587064853297
aF2050.4171144668944
aa(lp1631
F157.633392334
aF243.104202271
aF3218.4545286293296
aF2050.3631136128943
aa(lp1632
F158.165847778
aF243.072799683
aF3218.98698407333
aF2050.3317110248945
aa(lp1633
F158.961029053
aF243.024414062
aF3219.7821653483297
aF2050.283325403894
aa(lp1634
F159.738922119
aF242.975601196
aF3220.56005841433
aF2050.2345125378943
aa(lp1635
F160.378189087
aF242.937713623
aF3221.19932538233
aF2050.1966249648945
aa(lp1636
F161.136703491
aF242.896316528
aF3221.9578397863297
aF2050.1552278698946
aa(lp1637
F161.760787964
aF242.858963013
aF3222.5819242593298
aF2050.1178743548944
aa(lp1638
F162.383178711
aF242.81867981
aF3223.2043150063296
aF2050.0775911518945
aa(lp1639
F163.248474121
aF242.756607056
aF3224.06961041633
aF2050.0155183978945
aa(lp1640
F163.977035522
aF242.700881958
aF3224.7981718173296
aF2049.9597932998945
aa(lp1641
F164.582336426
aF242.640701294
aF3225.4034727213298
aF2049.8996126358943
aa(lp1642
F165.302764893
aF242.555541992
aF3226.12390118833
aF2049.8144533338946
aa(lp1643
F165.779724121
aF242.499313354
aF3226.60086041633
aF2049.7582246958946
aa(lp1644
F166.580307007
aF242.404434204
aF3227.40144330233
aF2049.6633455458946
aa(lp1645
F167.258987427
aF242.324325562
aF3228.08012372233
aF2049.5832369038944
aa(lp1646
F167.706283569
aF242.274856567
aF3228.5274198643297
aF2049.5337679088943
aa(lp1647
F168.385803223
aF242.201004028
aF3229.20693951833
aF2049.4599153698946
aa(lp1648
F169.053939819
aF242.122436523
aF3229.8750761143297
aF2049.3813478648945
aa(lp1649
F169.588729858
aF242.059143066
aF3230.40986615333
aF2049.3180544078946
aa(lp1650
F170.219482422
aF241.982589722
aF3231.04061871733
aF2049.2415010638942
aa(lp1651
F170.803863525
aF241.914978027
aF3231.62499982033
aF2049.1738893688944
aa(lp1652
F171.273468018
aF241.855209351
aF3232.09460431333
aF2049.1141206928946
aa(lp1653
F171.853805542
aF241.792602539
aF3232.6749418373297
aF2049.0515138808946
aa(lp1654
F172.349334717
aF241.734054565
aF3233.17047101233
aF2048.9929659068944
aa(lp1655
F172.920455933
aF241.667526245
aF3233.74159222833
aF2048.9264375868943
aa(lp1656
F173.384140015
aF241.617935181
aF3234.2052763103297
aF2048.8768465228945
aa(lp1657
F173.914398193
aF241.551147461
aF3234.73553448833
aF2048.810058802894
aa(lp1658
F174.411224365
aF241.480484009
aF3235.23236066033
aF2048.7393953508945
aa(lp1659
F174.737548828
aF241.426895142
aF3235.5586851233297
aF2048.6858064838943
aa(lp1660
F175.202331543
aF241.362365723
aF3236.02346783833
aF2048.6212770648945
aa(lp1661
F175.637496948
aF241.291122437
aF3236.4586332433296
aF2048.5500337788944
aa(lp1662
F175.992797852
aF241.227813721
aF3236.8139341473297
aF2048.4867250628945
aa(lp1663
F176.385452271
aF241.157546997
aF3237.2065885663296
aF2048.4164583388942
aa(lp1664
F176.767913818
aF241.088607788
aF3237.58905011333
aF2048.3475191298944
aa(lp1665
F177.084854126
aF241.014434814
aF3237.90599042133
aF2048.2733461558946
aa(lp1666
F177.485351562
aF240.938796997
aF3238.3064878573296
aF2048.1977083388942
aa(lp1667
F177.817108154
aF240.864318848
aF3238.6382444493297
aF2048.1232301898945
aa(lp1668
F178.208007812
aF240.746963501
aF3239.0291441073296
aF2048.0058748428946
aa(lp1669
F178.539306641
aF240.638122559
aF3239.36044293633
aF2047.8970339008945
aa(lp1670
F178.880523682
aF240.511306763
aF3239.7016599773297
aF2047.7702181048944
aa(lp1671
F179.267883301
aF240.353973389
aF3240.0890195963298
aF2047.6128847308944
aa(lp1672
F179.64616394
aF240.194290161
aF3240.4673002353297
aF2047.4532015028944
aa(lp1673
F179.957641602
aF240.042510986
aF3240.7787778973297
aF2047.3014223278944
aa(lp1674
F180.322845459
aF239.844848633
aF3241.1439817543296
aF2047.1037599748945
aa(lp1675
F180.676559448
aF239.606170654
aF3241.4976957433296
aF2046.8650819958943
aa(lp1676
F180.930877686
aF239.378341675
aF3241.7520139813296
aF2046.6372530168944
aa(lp1677
F181.205215454
aF239.105148315
aF3242.02635174933
aF2046.3640596568944
aa(lp1678
F181.362609863
aF238.904556274
aF3242.18374615833
aF2046.1634676158944
aa(lp1679
F181.566223145
aF238.579940796
aF3242.38735944033
aF2045.8388521378945
aa(lp1680
F181.71182251
aF238.227416992
aF3242.5329588053296
aF2045.4863283338943
aa(lp1681
F181.780853271
aF237.929214478
aF3242.60198956633
aF2045.1881258198944
aa(lp1682
F181.818984985
aF237.566162109
aF3242.64012128033
aF2044.8250734508945
aa(lp1683
F181.810333252
aF237.2137146
aF3242.6314695473297
aF2044.4726259418944
aa(lp1684
F181.773300171
aF236.924514771
aF3242.5944364663296
aF2044.1834261128945
aa(lp1685
F181.683929443
aF236.572479248
aF3242.50506573833
aF2043.8313905898945
aa(lp1686
F181.595916748
aF236.327453613
aF3242.41705304333
aF2043.5863649548944
aa(lp1687
F181.387054443
aF235.860946655
aF3242.20819073833
aF2043.1198579968943
aa(lp1688
F181.191238403
aF235.467681885
aF3242.01237469833
aF2042.7265932268945
aa(lp1689
F181.037521362
aF235.200454712
aF3241.85865765733
aF2042.4593660538944
aa(lp1690
F180.784729004
aF234.804046631
aF3241.6058652993297
aF2042.0629579728943
aa(lp1691
F180.510406494
aF234.400512695
aF3241.33154278933
aF2041.6594240368945
aa(lp1692
F180.279678345
aF234.069900513
aF3241.1008146403296
aF2041.3288118548944
aa(lp1693
F180.008544922
aF233.663864136
aF3240.82968121733
aF2040.9227754778944
aa(lp1694
F179.740234375
aF233.237319946
aF3240.56137067033
aF2040.4962312878945
aa(lp1695
F179.520904541
aF232.879104614
aF3240.34204083633
aF2040.1380159558944
aa(lp1696
F179.25227356
aF232.441650391
aF3240.07340985533
aF2039.7005617328944
aa(lp1697
F179.062362671
aF232.138977051
aF3239.8834989663296
aF2039.3978883928944
aa(lp1698
F178.775009155
aF231.682571411
aF3239.59614545033
aF2038.9414827528944
aa(lp1699
F178.476791382
aF231.212799072
aF3239.29792767733
aF2038.4717104138945
aa(lp1700
F178.166275024
aF230.730758667
aF3238.9874113193296
aF2037.9896700088943
aa(lp1701
F177.911621094
aF230.332000732
aF3238.73275738933
aF2037.5909120738945
aa(lp1702
F177.596389771
aF229.845687866
aF3238.4175260663296
aF2037.1045992078944
aa(lp1703
F177.266845703
aF229.34703064
aF3238.0879819983297
aF2036.6059419818944
aa(lp1704
F176.984817505
aF228.916046143
aF3237.80595380033
aF2036.1749574848943
aa(lp1705
F176.648742676
aF228.401016235
aF3237.4698789713298
aF2035.6599275768945
aa(lp1706
F176.418945312
aF228.051742554
aF3237.2400816073296
aF2035.3106538958943
aa(lp1707
F176.002655029
aF227.419876099
aF3236.8237913243297
aF2034.6787874408944
aa(lp1708
F175.700637817
aF226.966278076
aF3236.5217741123297
aF2034.2251894178944
aa(lp1709
F175.382034302
aF226.494293213
aF3236.20317059733
aF2033.7532045548944
aa(lp1710
F174.992599487
aF225.919433594
aF3235.81373578233
aF2033.1783449358945
aa(lp1711
F174.66784668
aF225.439147949
aF3235.4889829753297
aF2032.6980592908944
aa(lp1712
F174.249130249
aF224.840759277
aF3235.0702665443296
aF2032.0996706188944
aa(lp1713
F173.857650757
aF224.2706604
aF3234.67878705233
aF2031.5295717418944
aa(lp1714
F173.543304443
aF223.805267334
aF3234.36444073833
aF2031.0641786758945
aa(lp1715
F173.155838013
aF223.248565674
aF3233.9769743083298
aF2030.5074770158944
aa(lp1716
F172.759231567
aF222.685653687
aF3233.5803678623297
aF2029.9445650288944
aa(lp1717
F172.415481567
aF222.210296631
aF3233.2366178623297
aF2029.4692079728943
aa(lp1718
F172.015350342
aF221.655136108
aF3232.83648663733
aF2028.9140474498945
aa(lp1719
F171.681335449
aF221.190032959
aF3232.50247174433
aF2028.4489443008945
aa(lp1720
F171.286621094
aF220.625961304
aF3232.10775738933
aF2027.8848726458943
aa(lp1721
F170.96975708
aF220.177993774
aF3231.7908933753297
aF2027.4369051158944
aa(lp1722
F170.637786865
aF219.713638306
aF3231.45892316033
aF2026.9725496478945
aa(lp1723
F170.224899292
aF219.13899231
aF3231.0460355873297
aF2026.3979036518945
aa(lp1724
F169.81022644
aF218.57333374
aF3230.6313627353297
aF2025.8322450818944
aa(lp1725
F169.470855713
aF218.108291626
aF3230.2919920083295
aF2025.3672029678944
aa(lp1726
F169.069458008
aF217.558395386
aF3229.8905943033296
aF2024.8173067278944
aa(lp1727
F168.731628418
aF217.084320068
aF3229.55276471333
aF2024.3432314098945
aa(lp1728
F168.391998291
aF216.604537964
aF3229.21313458633
aF2023.8634493058944
aa(lp1729
F167.925994873
aF215.939285278
aF3228.74713116833
aF2023.1981966198944
aa(lp1730
F167.66027832
aF215.568328857
aF3228.48141461533
aF2022.8272401988945
aa(lp1731
F167.249206543
aF214.990234375
aF3228.07034283833
aF2022.2491457168944
aa(lp1732
F166.835113525
aF214.424209595
aF3227.65624982033
aF2021.6831209368945
aa(lp1733
F166.48677063
aF213.95098877
aF3227.30790692533
aF2021.2099001118945
aa(lp1734
F166.066574097
aF213.381454468
aF3226.8877103923296
aF2020.6403658098943
aa(lp1735
F165.645019531
aF212.808654785
aF3226.4661558263297
aF2020.0675661268945
aa(lp1736
F165.296508789
aF212.330093384
aF3226.11764508433
aF2019.5890047258945
aa(lp1737
F164.884536743
aF211.767700195
aF3225.7056730383297
aF2019.0266115368945
aa(lp1738
F164.545013428
aF211.312179565
aF3225.3661497233297
aF2018.5710909068944
aa(lp1739
F164.209899902
aF210.866714478
aF3225.0310361973297
aF2018.1256258198944
aa(lp1740
F163.813995361
aF210.341690063
aF3224.6351316563296
aF2017.6006014048944
aa(lp1741
F163.412872314
aF209.820388794
aF3224.23400860933
aF2017.0793001358943
aa(lp1742
F163.07081604
aF209.378341675
aF3223.8919523353297
aF2016.6372530168944
aa(lp1743
F162.653991699
aF208.849136353
aF3223.47512799433
aF2016.1080476948944
aa(lp1744
F162.31288147
aF208.407562256
aF3223.1340177653296
aF2015.6664735978943
aa(lp1745
F161.901733398
aF207.874649048
aF3222.72286969333
aF2015.1335603898945
aa(lp1746
F161.505020142
aF207.358825684
aF3222.3261564373297
aF2014.6177370258945
aa(lp1747
F161.181625366
aF206.935119629
aF3222.0027616613297
aF2014.1940309708943
aa(lp1748
F160.799118042
aF206.442764282
aF3221.6202543373297
aF2013.7016756238945
aa(lp1749
F160.48538208
aF206.042572021
aF3221.3065183753297
aF2013.3014833628945
aa(lp1750
F160.178085327
aF205.648269653
aF3220.99922162233
aF2012.9071809948944
aa(lp1751
F159.817581177
aF205.188552856
aF3220.63871747233
aF2012.4474641978945
aa(lp1752
F159.517883301
aF204.810882568
aF3220.3390195963298
aF2012.0697939098945
aa(lp1753
F159.159469604
aF204.357025146
aF3219.98060589933
aF2011.6159364878945
aa(lp1754
F158.790512085
aF203.892303467
aF3219.61164838033
aF2011.1512148088943
aa(lp1755
F158.462127686
aF203.503128052
aF3219.2832639813296
aF2010.7620393938944
aa(lp1756
F158.098693848
aF203.052993774
aF3218.91983014333
aF2010.3119051158944
aa(lp1757
F157.863388062
aF202.755584717
aF3218.68452435733
aF2010.0144960588943
aa(lp1758
F157.515136719
aF202.314498901
aF3218.33627301433
aF2009.5734102428944
aa(lp1759
F157.125289917
aF201.809875488
aF3217.9464262123297
aF2009.0687868298944
aa(lp1760
F156.903381348
aF201.522598267
aF3217.72451764333
aF2008.7815096088943
aa(lp1761
F156.565444946
aF201.086181641
aF3217.3865812413296
aF2008.3450929828944
aa(lp1762
F156.233627319
aF200.657226562
aF3217.0547636143297
aF2007.9161379038944
aa(lp1763
F155.952987671
aF200.292068481
aF3216.7741239663296
aF2007.5509798228945
aa(lp1764
F155.639038086
aF199.885650635
aF3216.4601743813296
aF2007.1445619768945
aa(lp1765
F155.38621521
aF199.561264038
aF3216.20735150533
aF2006.8201753798944
aa(lp1766
F155.090774536
aF199.193435669
aF3215.91191083133
aF2006.4523470108943
aa(lp1767
F154.799026489
aF198.831832886
aF3215.6201627843298
aF2006.0907442278944
aa(lp1768
F154.557739258
aF198.543334961
aF3215.3788755533296
aF2005.8022463028944
aa(lp1769
F154.250289917
aF198.198608398
aF3215.0714262123297
aF2005.4575197398945
aa(lp1770
F154.032272339
aF197.973480225
aF3214.8534086343298
aF2005.2323915668944
aa(lp1771
F153.618881226
aF197.586288452
aF3214.44001752133
aF2004.8451997938944
aa(lp1772
F153.244827271
aF197.265869141
aF3214.0659635663296
aF2004.5247804828944
aa(lp1773
F152.979019165
aF197.071243286
aF3213.8001554603297
aF2004.3301546278944
aa(lp1774
F152.491912842
aF196.73815918
aF3213.31304913733
aF2003.9970705218943
aa(lp1775
F152.122314453
aF196.517913818
aF3212.9434507483297
aF2003.7768251598945
aa(lp1776
F151.714233398
aF196.302993774
aF3212.53536969333
aF2003.5619051158944
aa(lp1777
F151.190628052
aF196.070678711
aF3212.01176434733
aF2003.3295900528944
aa(lp1778
F150.720413208
aF195.90625
aF3211.54154950333
aF2003.1651613418944
aa(lp1779
F150.125549316
aF195.72366333
aF3210.94668561133
aF2002.9825746718943
aa(lp1780
F149.622772217
aF195.584732056
aF3210.44390851233
aF2002.8436433978945
aa(lp1781
F149.121444702
aF195.471069336
aF3209.94258099733
aF2002.7299806778944
aa(lp1782
F148.416625977
aF195.347366333
aF3209.2377622723297
aF2002.6062776748945
aa(lp1783
F148.011810303
aF195.305892944
aF3208.8329465983297
aF2002.5648042858943
aa(lp1784
F147.381759644
aF195.286132812
aF3208.2028959393297
aF2002.5450441538944
aa(lp1785
F146.758514404
aF195.307342529
aF3207.5796506993297
aF2002.5662538708943
aa(lp1786
F146.228622437
aF195.342788696
aF3207.04975873233
aF2002.6017000378945
aa(lp1787
F145.599456787
aF195.411819458
aF3206.42059308233
aF2002.6707307998945
aa(lp1788
F144.992553711
aF195.509429932
aF3205.8136900063296
aF2002.7683412738943
aa(lp1789
F144.488555908
aF195.610687256
aF3205.3096922033296
aF2002.8695985978943
aa(lp1790
F143.895736694
aF195.748474121
aF3204.7168729893297
aF2003.0073854628945
aa(lp1791
F143.395889282
aF195.892623901
aF3204.21702557733
aF2003.1515352428944
aa(lp1792
F142.803573608
aF196.07510376
aF3203.62470990333
aF2003.3340151018945
aa(lp1793
F142.295959473
aF196.239822388
aF3203.11709576833
aF2003.4987337298944
aa(lp1794
F141.786026001
aF196.407455444
aF3202.60716229633
aF2003.6663667858943
aa(lp1795
F141.184631348
aF196.615783691
aF3202.00576764333
aF2003.8746950328944
aa(lp1796
F140.575576782
aF196.839996338
aF3201.39671307733
aF2004.0989076798944
aa(lp1797
F140.047439575
aF197.031173706
aF3200.8685758703296
aF2004.2900850478945
aa(lp1798
F139.380889893
aF197.261871338
aF3200.20202618833
aF2004.5207826798944
aa(lp1799
F138.712799072
aF197.500656128
aF3199.53393536733
aF2004.7595674698944
aa(lp1800
F138.162017822
aF197.695449829
aF3198.98315411733
aF2004.9543611708943
aa(lp1801
F137.487579346
aF197.930465698
aF3198.30871564133
aF2005.1893770398945
aa(lp1802
F136.819366455
aF198.176452637
aF3197.6405027503297
aF2005.4353639788944
aa(lp1803
F136.252380371
aF198.392745972
aF3197.07351666633
aF2005.6516573138945
aa(lp1804
F135.577224731
aF198.644210815
aF3196.39836102633
aF2005.9031221568944
aa(lp1805
F135.01322937
aF198.856765747
aF3195.8343656653296
aF2006.1156770888945
aa(lp1806
F134.565628052
aF199.030426025
aF3195.38676434733
aF2006.2893373668944
aa(lp1807
F133.886856079
aF199.299728394
aF3194.70799237433
aF2006.5586397358943
aa(lp1808
F133.321090698
aF199.526031494
aF3194.1422269933296
aF2006.7849428358945
aa(lp1809
F132.626541138
aF199.801025391
aF3193.4476774333298
aF2007.0599367328944
aa(lp1810
F131.937820435
aF200.077484131
aF3192.75895673033
aF2007.3363954728943
aa(lp1811
F131.234634399
aF200.363540649
aF3192.0557706943296
aF2007.6224519908944
aa(lp1812
F130.650238037
aF200.601715088
aF3191.47137433233
aF2007.8606264298944
aa(lp1813
F129.96824646
aF200.882110596
aF3190.78938275533
aF2008.1410219378945
aa(lp1814
F129.503540039
aF201.078918457
aF3190.32467633433
aF2008.3378297988943
aa(lp1815
F128.820541382
aF201.375427246
aF3189.64167767733
aF2008.6343385878945
aa(lp1816
F128.15045166
aF201.66784668
aF3188.9715879553296
aF2008.9267580218943
aa(lp1817
F127.606109619
aF201.910949707
aF3188.42724591433
aF2009.1698610488943
aa(lp1818
F126.96711731
aF202.19569397
aF3187.78825360533
aF2009.4546053118945
aa(lp1819
F126.441680908
aF202.432495117
aF3187.2628172033296
aF2009.6914064588943
aa(lp1820
F125.821510315
aF202.717437744
aF3186.64264661033
aF2009.9763490858945
aa(lp1821
F125.209609985
aF203.001724243
aF3186.03074628033
aF2010.2606355848943
aa(lp1822
F124.698783875
aF203.236358643
aF3185.51992017033
aF2010.4952699848943
aa(lp1823
F124.186538696
aF203.467391968
aF3185.0076749913296
aF2010.7263033098943
aa(lp1824
F123.474868774
aF203.789459229
aF3184.2960050693296
aF2011.0483705708943
aa(lp1825
F123.071006775
aF203.970443726
aF3183.89214307033
aF2011.2293550678944
aa(lp1826
F122.476623535
aF204.237411499
aF3183.2977598303296
aF2011.4963228408944
aa(lp1827
F121.875030518
aF204.49319458
aF3182.69616681333
aF2011.7521059218943
aa(lp1828
F121.381835938
aF204.696411133
aF3182.20297223333
aF2011.9553224748945
aa(lp1829
F120.787574768
aF204.937469482
aF3181.60871106333
aF2012.1963808238945
aa(lp1830
F120.195053101
aF205.169937134
aF3181.01618939633
aF2012.4288484758945
aa(lp1831
F119.701812744
aF205.359481812
aF3180.52294903933
aF2012.6183931538944
aa(lp1832
F119.107521057
aF205.580368042
aF3179.92865735233
aF2012.8392793838943
aa(lp1833
F118.708610535
aF205.72038269
aF3179.5297468303297
aF2012.9792940318944
aa(lp1834
F118.110221863
aF205.922210693
aF3178.9313581583297
aF2013.1811220348945
aa(lp1835
F117.419998169
aF206.152999878
aF3178.2411344643297
aF2013.4119112198944
aa(lp1836
F117.024383545
aF206.277450562
aF3177.84551984033
aF2013.5363619038944
aa(lp1837
F116.430831909
aF206.460083008
aF3177.25196820433
aF2013.7189943498945
aa(lp1838
F116.038856506
aF206.577209473
aF3176.85999280133
aF2013.8361208148945
aa(lp1839
F115.357154846
aF206.780731201
aF3176.1782911413297
aF2014.0396425428944
aa(lp1840
F114.783409119
aF206.943023682
aF3175.6045454143296
aF2014.2019350238943
aa(lp1841
F114.40259552
aF207.047958374
aF3175.2237318153298
aF2014.3068697158944
aa(lp1842
F113.836547852
aF207.214447021
aF3174.6576841473297
aF2014.4733583628945
aa(lp1843
F113.266120911
aF207.383560181
aF3174.08725720633
aF2014.6424715228945
aa(lp1844
F112.79473877
aF207.513504028
aF3173.61587506533
aF2014.7724153698944
aa(lp1845
F112.241645813
aF207.663742065
aF3173.06278210833
aF2014.9226534068944
aa(lp1846
F111.789825439
aF207.793014526
aF3172.61096173433
aF2015.0519258678944
aa(lp1847
F111.255187988
aF207.943572998
aF3172.07632428333
aF2015.2024843398945
aa(lp1848
F110.718421936
aF208.095596313
aF3171.53955823133
aF2015.3545076548944
aa(lp1849
F110.276329041
aF208.222961426
aF3171.0974653363296
aF2015.4818727678944
aa(lp1850
F109.738754272
aF208.375762939
aF3170.5598905673296
aF2015.6346742808944
aa(lp1851
F109.200553894
aF208.529327393
aF3170.02169018933
aF2015.7882387348943
aa(lp1852
F108.749053955
aF208.661193848
aF3169.5701902503297
aF2015.9201051898945
aa(lp1853
F108.206604004
aF208.818878174
aF3169.0277402993297
aF2016.0777895158944
aa(lp1854
F107.752510071
aF208.947860718
aF3168.5736463663297
aF2016.2067720598943
aa(lp1855
F107.204216003
aF209.099502563
aF3168.02535229833
aF2016.3584139048944
aa(lp1856
F106.742958069
aF209.224563599
aF3167.56409436433
aF2016.4834749408944
aa(lp1857
F106.210121155
aF209.378707886
aF3167.0312574503296
aF2016.6376192278944
aa(lp1858
F105.68359375
aF209.533065796
aF3166.50473004533
aF2016.7919771378945
aa(lp1859
F105.336395264
aF209.640319824
aF3166.15753155933
aF2016.8992311658944
aa(lp1860
F104.816337585
aF209.796600342
aF3165.6374738803297
aF2017.0555116838943
aa(lp1861
F104.302658081
aF209.951843262
aF3165.12379437633
aF2017.2107546038944
aa(lp1862
F103.87953186
aF210.078277588
aF3164.70066815533
aF2017.3371889298944
aa(lp1863
F103.381950378
aF210.233078003
aF3164.20308667333
aF2017.4919893448944
aa(lp1864
F102.895736694
aF210.383270264
aF3163.7168729893297
aF2017.6421816058944
aa(lp1865
F102.50390625
aF210.504669189
aF3163.32504254533
aF2017.7635805308944
aa(lp1866
F102.046394348
aF210.645858765
aF3162.8675306433297
aF2017.9047701068944
aa(lp1867
F101.755264282
aF210.740509033
aF3162.57640057733
aF2017.9994203748945
aa(lp1868
F101.266441345
aF210.89541626
aF3162.08757764033
aF2018.1543276018945
aa(lp1869
F100.873123169
aF211.039596558
aF3161.6942594643297
aF2018.2985078998945
aa(lp1870
F100.614074707
aF211.13659668
aF3161.4352110023297
aF2018.3955080218943
aa(lp1871
F100.217803955
aF211.280441284
aF3161.0389402503297
aF2018.5393526258945
aa(lp1872
F99.8387756348
aF211.428451538
aF3160.65991193013
aF2018.6873628798944
aa(lp1873
F99.5300827026
aF211.55607605
aF3160.3512189979297
aF2018.8149873918944
aa(lp1874
F99.181312561
aF211.716079712
aF3160.00244885633
aF2018.9749910538944
aa(lp1875
F98.9148635864
aF211.858444214
aF3159.7359998817296
aF2019.1173555558944
aa(lp1876
F98.6040878296
aF212.051132202
aF3159.4252241249296
aF2019.3100435438944
aa(lp1877
F98.3632354736
aF212.22706604
aF3159.18437176893
aF2019.4859773818944
aa(lp1878
F98.0771255493
aF212.44758606
aF3158.89826184463
aF2019.7064974018945
aa(lp1879
F97.8480834961
aF212.643737793
aF3158.66921979143
aF2019.9026491348945
aa(lp1880
F97.5913848877
aF212.904769897
aF3158.4125211830296
aF2020.1636812388945
aa(lp1881
F97.294708252
aF213.252700806
aF3158.1158445473297
aF2020.5116121478945
aa(lp1882
F97.1385192871
aF213.473876953
aF3157.9596555824296
aF2020.7327882948944
aa(lp1883
F96.950378418
aF213.822616577
aF3157.77151471333
aF2021.0815279188944
aa(lp1884
F96.7831802368
aF214.203155518
aF3157.60431653213
aF2021.4620668598943
aa(lp1885
F96.6770629883
aF214.535858154
aF3157.4981992836297
aF2021.7947694958943
aa(lp1886
F96.6354751587
aF214.969848633
aF3157.45661145403
aF2022.2287599748945
aa(lp1887
F96.6265106201
aF215.272399902
aF3157.4476469154297
aF2022.5313112438944
aa(lp1888
F96.6350326538
aF215.748153687
aF3157.4561689491297
aF2023.0070650288944
aa(lp1889
F96.7105255127
aF216.24446106
aF3157.5316618080296
aF2023.5033724018945
aa(lp1890
F96.8116378784
aF216.658416748
aF3157.6327741737296
aF2023.9173280898945
aa(lp1891
F96.978805542
aF217.171630859
aF3157.7999418373297
aF2024.4305422008945
aa(lp1892
F97.1684417725
aF217.611679077
aF3157.98957806783
aF2024.8705904188944
aa(lp1893
F97.4341812134
aF218.150085449
aF3158.2553175087296
aF2025.4089967908944
aa(lp1894
F97.7665863037
aF218.698730469
aF3158.58772259903
aF2025.9576418108945
aa(lp1895
F98.0756454468
aF219.153640747
aF3158.89678174213
aF2026.4125520888945
aa(lp1896
F98.4661254883
aF219.703323364
aF3159.2872617836297
aF2026.9622347058944
aa(lp1897
F98.7468109131
aF220.068496704
aF3159.56794720843
aF2027.3274080458943
aa(lp1898
F99.2052001953
aF220.612228394
aF3160.0263364906295
aF2027.8711397358943
aa(lp1899
F99.7890701294
aF221.269927979
aF3160.6102064247298
aF2028.5288393208943
aa(lp1900
F100.132202148
aF221.651855469
aF3160.95333844333
aF2028.9107668108945
aa(lp1901
F100.670982361
aF222.221084595
aF3161.4921186563297
aF2029.4799959368945
aa(lp1902
F101.234855652
aF222.797622681
aF3162.05599194733
aF2030.0565340228945
aa(lp1903
F101.721221924
aF223.282806396
aF3162.54235821933
aF2030.5417177378945
aa(lp1904
F102.31526947
aF223.874862671
aF3163.13640576533
aF2031.1337740128945
aa(lp1905
F102.815452576
aF224.378494263
aF3163.63658887133
aF2031.6374056048944
aa(lp1906
F103.432502747
aF224.997131348
aF3164.2536390423297
aF2032.2560426898945
aa(lp1907
F104.053642273
aF225.631942749
aF3164.87477856833
aF2032.8908540908944
aa(lp1908
F104.554634094
aF226.142974854
aF3165.37577038933
aF2033.4018861958943
aa(lp1909
F105.148780823
aF226.739562988
aF3165.9699171183297
aF2033.9984743298944
aa(lp1910
F105.735420227
aF227.327651978
aF3166.5565565223296
aF2034.5865633198944
aa(lp1911
F106.209213257
aF227.798309326
aF3167.03034955233
aF2035.0572206678944
aa(lp1912
F106.770019531
aF228.347854614
aF3167.5911558263297
aF2035.6067659558944
aa(lp1913
F107.225532532
aF228.802200317
aF3168.04666882733
aF2036.0611116588943
aa(lp1914
F107.677398682
aF229.25453186
aF3168.4985349773297
aF2036.5134432018945
aa(lp1915
F108.211326599
aF229.785003662
aF3169.03246289433
aF2037.0439150038944
aa(lp1916
F108.655143738
aF230.227005005
aF3169.4762800333297
aF2037.4859163468943
aa(lp1917
F109.200202942
aF230.763412476
aF3170.02133923733
aF2038.0223238178944
aa(lp1918
F109.74987793
aF231.313858032
aF3170.5710142253297
aF2038.5727693738945
aa(lp1919
F110.224700928
aF231.774703979
aF3171.0458372233297
aF2039.0336153208943
aa(lp1920
F110.771652222
aF232.31741333
aF3171.5927885173296
aF2039.5763246718943
aa(lp1921
F111.135108948
aF232.672683716
aF3171.9562452433297
aF2039.9315950578944
aa(lp1922
F111.794639587
aF233.32208252
aF3172.6157758823297
aF2040.5809938618945
aa(lp1923
F112.358604431
aF233.875488281
aF3173.17974072633
aF2041.1343996228943
aa(lp1924
F112.732772827
aF234.246704102
aF3173.55390912233
aF2041.5056154438944
aa(lp1925
F113.315711975
aF234.829299927
aF3174.1368482703297
aF2042.0882112688944
aa(lp1926
F113.91519165
aF235.417404175
aF3174.73632794533
aF2042.6763155168944
aa(lp1927
F114.398551941
aF235.900054932
aF3175.2196882363296
aF2043.1589662738943
aa(lp1928
F114.995544434
aF236.487869263
aF3175.8166807293296
aF2043.7467806048944
aa(lp1929
F115.607566833
aF237.077682495
aF3176.4287031283297
aF2044.3365938368945
aa(lp1930
F116.099487305
aF237.54069519
aF3176.9206236003297
aF2044.7996065318944
aa(lp1931
F116.704566956
aF238.078262329
aF3177.5257032513296
aF2045.3371736708943
aa(lp1932
F117.102081299
aF238.422027588
aF3177.92321759433
aF2045.6809389298944
aa(lp1933
F117.827568054
aF239.026062012
aF3178.64870434933
aF2046.2849733538944
aa(lp1934
F118.348320007
aF239.479766846
aF3179.1694563023298
aF2046.7386781878945
aa(lp1935
F118.990356445
aF240.035842896
aF3179.81149274033
aF2047.2947542378945
aa(lp1936
F119.639205933
aF240.598434448
aF3180.46034222833
aF2047.8573457898945
aa(lp1937
F120.172119141
aF241.068756104
aF3180.99325543633
aF2048.3276674458943
aa(lp1938
F120.703720093
aF241.539505005
aF3181.5248563883297
aF2048.7984163468946
aa(lp1939
F121.339996338
aF242.110397339
aF3182.16113263333
aF2049.3693086808944
aa(lp1940
F121.967208862
aF242.659042358
aF3182.78834515733
aF2049.9179536998945
aa(lp1941
F122.392784119
aF243.037155151
aF3183.2139204143296
aF2050.2960664928946
aa(lp1942
F123.127151489
aF243.697479248
aF3183.9482877843298
aF2050.9563905898945
aa(lp1943
F123.552726746
aF244.085174561
aF3184.37386304133
aF2051.344085902894
aa(lp1944
F124.315299988
aF244.78427124
aF3185.1364362833297
aF2052.0431825818946
aa(lp1945
F124.954238892
aF245.401351929
aF3185.7753751873297
aF2052.6602632708946
aa(lp1946
F125.364082336
aF245.80078125
aF3186.18521863133
aF2053.0596925918944
aa(lp1947
F125.975410461
aF246.381698608
aF3186.79654675633
aF2053.6406099498945
aa(lp1948
F126.574615479
aF246.957321167
aF3187.3957517743297
aF2054.2162325088943
aa(lp1949
F127.073387146
aF247.42350769
aF3187.89452344133
aF2054.6824190318944
aa(lp1950
F127.680747986
aF248.007904053
aF3188.5018842813297
aF2055.2668153948944
aa(lp1951
F128.265396118
aF248.556121826
aF3189.0865324133297
aF2055.8150331678944
aa(lp1952
F128.750289917
aF249.008468628
aF3189.5714262123297
aF2056.2673799698946
aa(lp1953
F129.29989624
aF249.532028198
aF3190.12103253533
aF2056.790939539894
aa(lp1954
F129.845428467
aF250.064575195
aF3190.66656476233
aF2057.3234865368945
aa(lp1955
F130.196014404
aF250.410430908
aF3191.0171506993297
aF2057.6693422498943
aa(lp1956
F130.739379883
aF250.92779541
aF3191.5605161783296
aF2058.1867067518942
aa(lp1957
F131.280929565
aF251.441741943
aF3192.1020658603297
aF2058.7006532848945
aa(lp1958
F131.810424805
aF251.930755615
aF3192.6315611003297
aF2059.1896669568946
aa(lp1959
F132.161712646
aF252.250534058
aF3192.98284894133
aF2059.5094453998945
aa(lp1960
F132.769302368
aF252.830291748
aF3193.5904386633297
aF2060.0892030898945
aa(lp1961
F133.203109741
aF253.246078491
aF3194.0242460363297
aF2060.5049898328944
aa(lp1962
F133.62713623
aF253.659896851
aF3194.4482725253297
aF2060.9188081928946
aa(lp1963
F134.137054443
aF254.13861084
aF3194.95819073833
aF2061.3975221818946
aa(lp1964
F134.640518188
aF254.60369873
aF3195.4616544833298
aF2061.8626100718943
aa(lp1965
F135.045730591
aF254.962249756
aF3195.8668668863297
aF2062.2211610978943
aa(lp1966
F135.511856079
aF255.365829468
aF3196.33299237433
aF2062.6247408098943
aa(lp1967
F135.892562866
aF255.665374756
aF3196.7136991613297
aF2062.9242860978943
aa(lp1968
F136.276565552
aF255.947677612
aF3197.09770184733
aF2063.2065889538944
aa(lp1969
F136.731933594
aF256.274719238
aF3197.55306988933
aF2063.5336305798946
aa(lp1970
F137.113876343
aF256.522674561
aF3197.9350126383297
aF2063.781585902894
aa(lp1971
F137.583969116
aF256.794433594
aF3198.4051054113297
aF2064.0533449358945
aa(lp1972
F137.984741211
aF257.00100708
aF3198.8058775063296
aF2064.2599184218943
aa(lp1973
F138.482376099
aF257.229370117
aF3199.3035123943296
aF2064.4882814588946
aa(lp1974
F138.960403442
aF257.432647705
aF3199.7815397373297
aF2064.6915590468943
aa(lp1975
F139.362472534
aF257.596740723
aF3200.18360882933
aF2064.8556520648945
aa(lp1976
F139.802032471
aF257.766815186
aF3200.62316876633
aF2065.025726527894
aa(lp1977
F140.365264893
aF257.9765625
aF3201.18640118833
aF2065.2354738418944
aa(lp1978
F140.848495483
aF258.125091553
aF3201.66963177833
aF2065.3840028948944
aa(lp1979
F141.399551392
aF258.294769287
aF3202.2206876873297
aF2065.5536806288947
aa(lp1980
F141.850189209
aF258.436798096
aF3202.6713255043296
aF2065.6957094378945
aa(lp1981
F142.395126343
aF258.544799805
aF3203.2162626383297
aF2065.8037111468943
aa(lp1982
F142.867355347
aF258.620819092
aF3203.6884916423296
aF2065.8797304338946
aa(lp1983
F143.383468628
aF258.667297363
aF3204.20460492333
aF2065.9262087048946
aa(lp1984
F143.876708984
aF258.695678711
aF3204.6978452793296
aF2065.9545900528947
aa(lp1985
F144.190765381
aF258.711486816
aF3205.0119016763297
aF2065.9703981578946
aa(lp1986
F144.671646118
aF258.70300293
aF3205.4927824133297
aF2065.9619142718943
aa(lp1987
F145.212356567
aF258.67276001
aF3206.0334928623297
aF2065.9316713518942
aa(lp1988
F145.479385376
aF258.653747559
aF3206.30052167133
aF2065.9126589008943
aa(lp1989
F145.879089355
aF258.607849121
aF3206.7002256503297
aF2065.8667604628945
aa(lp1990
F146.240112305
aF258.544464111
aF3207.0612486003297
aF2065.803375452894
aa(lp1991
F146.527709961
aF258.481201172
aF3207.3488462563296
aF2065.7401125138945
aa(lp1992
F146.861663818
aF258.399749756
aF3207.68280011333
aF2065.6586610978943
aa(lp1993
F147.137008667
aF258.326446533
aF3207.9581449623297
aF2065.5853578748943
aa(lp1994
F147.440490723
aF258.245788574
aF3208.26162701833
aF2065.5046999158944
aa(lp1995
F147.697967529
aF258.172088623
aF3208.5191038243297
aF2065.4309999648945
aa(lp1996
F147.963012695
aF258.088653564
aF3208.78414899033
aF2065.3475649058946
aa(lp1997
F148.29045105
aF257.980285645
aF3209.11158734533
aF2065.2391969868945
aa(lp1998
F148.623092651
aF257.888275146
aF3209.44422894633
aF2065.1471864878945
aa(lp1999
F148.872177124
aF257.823944092
aF3209.6933134193296
aF2065.0828554338946
aa(lp2000
F149.304580688
aF257.713378906
aF3210.1257169833298
aF2064.9722902478943
aa(lp2001
F149.547912598
aF257.650604248
aF3210.36904889333
aF2064.9095155898945
aa(lp2002
F149.934509277
aF257.538513184
aF3210.7556455723297
aF2064.7974245258943
aa(lp2003
F150.330307007
aF257.414001465
aF3211.15144330233
aF2064.6729128068946
aa(lp2004
F150.662796021
aF257.32119751
aF3211.4839323163296
aF2064.5801088518942
aa(lp2005
F151.078781128
aF257.186065674
aF3211.89991742333
aF2064.4449770158944
aa(lp2006
F151.426055908
aF257.077148438
aF3212.2471922033296
aF2064.3360597798946
aa(lp2007
F151.841003418
aF256.934020996
aF3212.66213971333
aF2064.1929323378945
aa(lp2008
F152.268875122
aF256.785400391
aF3213.0900114173296
aF2064.0443117328946
aa(lp2009
F152.622238159
aF256.663269043
aF3213.44337445433
aF2063.9221803848945
aa(lp2010
F153.053146362
aF256.508758545
aF3213.87428265733
aF2063.7676698868945
aa(lp2011
F153.497360229
aF256.341217041
aF3214.31849652433
aF2063.6001283828946
aa(lp2012
F153.861251831
aF256.194244385
aF3214.68238812633
aF2063.4531557268942
aa(lp2013
F154.311981201
aF256.008575439
aF3215.1331174963298
aF2063.2674867808946
aa(lp2014
F154.620285034
aF255.875991821
aF3215.44142132933
aF2063.1349031628943
aa(lp2015
F155.163452148
aF255.645339966
aF3215.98458844333
aF2062.9042513078944
aa(lp2016
F155.558380127
aF255.473220825
aF3216.3795164223297
aF2062.732132166894
aa(lp2017
F155.967330933
aF255.294113159
aF3216.78846722833
aF2062.5530245008945
aa(lp2018
F156.453613281
aF255.066345215
aF3217.2747495763297
aF2062.3252565568946
aa(lp2019
F156.86340332
aF254.866760254
aF3217.68453961533
aF2062.1256715958943
aa(lp2020
F157.372436523
aF254.617050171
aF3218.19357281833
aF2061.8759615128943
aa(lp2021
F157.89743042
aF254.350540161
aF3218.71856671533
aF2061.6094515028944
aa(lp2022
F158.350662231
aF254.115966797
aF3219.17179852633
aF2061.3748781388945
aa(lp2023
F158.907608032
aF253.826721191
aF3219.72874432733
aF2061.0856325328946
aa(lp2024
F159.272720337
aF253.63343811
aF3220.09385663233
aF2060.8923494518945
aa(lp2025
F159.826522827
aF253.340454102
aF3220.64765912233
aF2060.5993654438944
aa(lp2026
F160.482543945
aF252.989395142
aF3221.30368024033
aF2060.2483064838943
aa(lp2027
F160.854537964
aF252.787841797
aF3221.6756742593298
aF2060.0467531388945
aa(lp2028
F161.425765991
aF252.484130859
aF3222.2469022863297
aF2059.7430422008943
aa(lp2029
F161.797470093
aF252.278823853
aF3222.6186063883297
aF2059.5377351948946
aa(lp2030
F162.351089478
aF251.967697144
aF3223.17222577333
aF2059.2266084858943
aa(lp2031
F162.89125061
aF251.664978027
aF3223.71238690533
aF2058.9238893688944
aa(lp2032
F163.339675903
aF251.403823853
aF3224.16081219833
aF2058.6627351948946
aa(lp2033
F163.877304077
aF251.09085083
aF3224.69844037233
aF2058.3497621718943
aa(lp2034
F164.418289185
aF250.779159546
aF3225.23942548033
aF2058.0380708878943
aa(lp2035
F164.866210938
aF250.518280029
aF3225.68734723333
aF2057.7771913708943
aa(lp2036
F165.401199341
aF250.216598511
aF3226.2223356363297
aF2057.4755098528944
aa(lp2037
F165.843582153
aF249.970947266
aF3226.66471844833
aF2057.2298586078946
aa(lp2038
F166.276077271
aF249.72366333
aF3227.0972135663296
aF2056.9825746718943
aa(lp2039
F166.891220093
aF249.374649048
aF3227.7123563883297
aF2056.6335603898942
aa(lp2040
F167.334915161
aF249.123580933
aF3228.15605145633
aF2056.3824922748945
aa(lp2041
F167.786972046
aF248.850997925
aF3228.6081083413296
aF2056.1099092668946
aa(lp2042
F168.345932007
aF248.523361206
aF3229.16706830233
aF2055.7822725478945
aa(lp2043
F168.734695435
aF248.291885376
aF3229.55583173033
aF2055.5507967178946
aa(lp2044
F169.40145874
aF247.891723633
aF3230.22259503533
aF2055.1506349748943
aa(lp2045
F169.866394043
aF247.617843628
aF3230.68753033833
aF2054.8767549698946
aa(lp2046
F170.331069946
aF247.348464966
aF3231.1522062413296
aF2054.6073763078944
aa(lp2047
F170.880569458
aF247.02796936
aF3231.70170575333
aF2054.2868807018945
aa(lp2048
F171.327194214
aF246.771331787
aF3232.1483305093298
aF2054.0302431288947
aa(lp2049
F171.859542847
aF246.467819214
aF3232.6806791423296
aF2053.7267305558944
aa(lp2050
F172.301559448
aF246.213897705
aF3233.1226957433296
aF2053.4728090468943
aa(lp2051
F172.835571289
aF245.910552979
aF3233.65670758433
aF2053.1694643208943
aa(lp2052
F173.402297974
aF245.601669312
aF3234.2234342693296
aF2052.8605806538944
aa(lp2053
F173.775466919
aF245.390029907
aF3234.5966032143297
aF2052.6489412488945
aa(lp2054
F174.324447632
aF245.086914062
aF3235.14558392733
aF2052.345825403894
aa(lp2055
F174.963973999
aF244.743255615
aF3235.7851102943296
aF2052.0021669568946
aa(lp2056
F175.332122803
aF244.539016724
aF3236.1532590983297
aF2051.797928065894
aa(lp2057
F175.879165649
aF244.242401123
aF3236.7003019443296
aF2051.5013124648945
aa(lp2058
F176.23828125
aF244.048080444
aF3237.05941754533
aF2051.3069917858943
aa(lp2059
F176.85736084
aF243.707626343
aF3237.67849713533
aF2050.9665376848943
aa(lp2060
F177.373275757
aF243.423553467
aF3238.19441205233
aF2050.6824648088946
aa(lp2061
F177.715744019
aF243.230102539
aF3238.5368803143297
aF2050.4890138808946
aa(lp2062
F178.227813721
aF242.940185547
aF3239.04895001633
aF2050.1990968888945
aa(lp2063
F178.731323242
aF242.646453857
aF3239.55245953733
aF2049.9053651988943
aa(lp2064
F179.062576294
aF242.450927734
aF3239.8837125893297
aF2049.7098390758943
aa(lp2065
F179.550918579
aF242.140823364
aF3240.37205487433
aF2049.3997347058944
aa(lp2066
F180.031921387
aF241.834411621
aF3240.8530576823296
aF2049.0933229628945
aa(lp2067
F180.432434082
aF241.5753479
aF3241.2535703773297
aF2048.8342592418944
aa(lp2068
F180.889312744
aF241.267852783
aF3241.71044903933
aF2048.5267641248943
aa(lp2069
F181.269332886
aF241.021316528
aF3242.09046918133
aF2048.2802278698946
aa(lp2070
F181.722320557
aF240.724884033
aF3242.5434568523297
aF2047.9837953748945
aa(lp2071
F182.187347412
aF240.426422119
aF3243.00848370733
aF2047.6853334608945
aa(lp2072
F182.569473267
aF240.177871704
aF3243.3906095623297
aF2047.4367830458943
aa(lp2073
F183.031723022
aF239.882339478
aF3243.8528593173296
aF2047.1412508198944
aa(lp2074
F183.509719849
aF239.573974609
aF3244.3308561443296
aF2046.8328859508945
aa(lp2075
F183.895599365
aF239.320510864
aF3244.71673566033
aF2046.5794222058944
aa(lp2076
F184.366348267
aF239.018157959
aF3245.1874845623297
aF2046.2770693008945
aa(lp2077
F184.680053711
aF238.816879272
aF3245.5011900063296
aF2046.0757906138945
aa(lp2078
F185.146697998
aF238.511138916
aF3245.96783429333
aF2045.7700502578944
aa(lp2079
F185.579040527
aF238.237625122
aF3246.4001768223297
aF2045.4965364638945
aa(lp2080
F185.915710449
aF238.030319214
aF3246.73684674433
aF2045.2892305558944
aa(lp2081
F186.302383423
aF237.795776367
aF3247.1235197183296
aF2045.0546877088943
aa(lp2082
F186.594024658
aF237.61114502
aF3247.4151609533296
aF2044.8700563618945
aa(lp2083
F186.917007446
aF237.394638062
aF3247.7381437413296
aF2044.6535494038944
aa(lp2084
F187.157180786
aF237.236999512
aF3247.97831708133
aF2044.4959108538944
aa(lp2085
F187.422531128
aF237.063079834
aF3248.24366742333
aF2044.3219911758945
aa(lp2086
F187.578643799
aF236.950805664
aF3248.39978009433
aF2044.2097170058944
aa(lp2087
F187.791946411
aF236.796722412
aF3248.61308270633
aF2044.0556337538944
aa(lp2088
F187.992904663
aF236.665283203
aF3248.8140409583298
aF2043.9241945448944
aa(lp2089
F188.180511475
aF236.532989502
aF3249.00164777033
aF2043.7919008438944
aa(lp2090
F188.313339233
aF236.428329468
aF3249.13447552833
aF2043.6872408098943
aa(lp2091
F188.468200684
aF236.331848145
aF3249.2893369793296
aF2043.5907594868945
aa(lp2092
F188.565109253
aF236.274520874
aF3249.38624554833
aF2043.5334322158944
aa(lp2093
F188.692276001
aF236.190994263
aF3249.51341229633
aF2043.4499056048944
aa(lp2094
F188.806365967
aF236.109069824
aF3249.62750226233
aF2043.3679811658944
aa(lp2095
F188.884368896
aF236.037689209
aF3249.70550519133
aF2043.2966005508945
aa(lp2096
F188.968093872
aF235.975814819
aF3249.7892301673296
aF2043.2347261608943
aa(lp2097
F189.058319092
aF235.904129028
aF3249.87945538733
aF2043.1630403698944
aa(lp2098
F189.109725952
aF235.855789185
aF3249.93086224733
aF2043.1147005268945
aa(lp2099
F189.185195923
aF235.795257568
aF3250.0063322183296
aF2043.0541689098945
aa(lp2100
F189.255828857
aF235.733825684
aF3250.0769651523296
aF2042.9927370258945
aa(lp2101
F189.306167603
aF235.685455322
aF3250.12730389833
aF2042.9443666638945
aa(lp2102
F189.364257812
aF235.635452271
aF3250.1853941073296
aF2042.8943636128945
aa(lp2103
F189.411605835
aF235.587142944
aF3250.23274213033
aF2042.8460542858943
aa(lp2104
F189.453765869
aF235.552276611
aF3250.27490216433
aF2042.8111879528944
aa(lp2105
F189.48979187
aF235.518051147
aF3250.3109281653296
aF2042.7769624888945
aa(lp2106
F189.522628784
aF235.482757568
aF3250.34376507933
aF2042.7416689098945
aa(lp2107
F189.564025879
aF235.442840576
aF3250.3851621743297
aF2042.7017519178944
aa(lp2108
F189.595413208
aF235.407272339
aF3250.41654950333
aF2042.6661836808944
aa(lp2109
F189.620788574
aF235.379043579
aF3250.44192486933
aF2042.6379549208943
aa(lp2110
F189.649841309
aF235.348632812
aF3250.4709776043296
aF2042.6075441538944
aa(lp2111
F189.66960144
aF235.325759888
aF3250.4907377353297
aF2042.5846712298944
aa(lp2112
F189.691268921
aF235.30065918
aF3250.5124052163296
aF2042.5595705218943
aa(lp2113
F189.705276489
aF235.28112793
aF3250.5264127843298
aF2042.5400392718943
aa(lp2114
F189.730163574
aF235.261978149
aF3250.55129986933
aF2042.5208894908944
aa(lp2115
F189.750076294
aF235.236129761
aF3250.5712125893297
aF2042.4950411028944
aa(lp2116
F189.769882202
aF235.222091675
aF3250.59101849733
aF2042.4810030168944
aa(lp2117
F189.787963867
aF235.208282471
aF3250.60910016233
aF2042.4671938128945
aa(lp2118
F189.805923462
aF235.186737061
aF3250.62705975733
aF2042.4456484028944
aa(lp2119
F189.819641113
aF235.168716431
aF3250.64077740833
aF2042.4276277728945
aa(lp2120
F189.839202881
aF235.144790649
aF3250.6603391763297
aF2042.4037019908944
aa(lp2121
F189.858581543
aF235.115951538
aF3250.67971783833
aF2042.3748628798944
aa(lp2122
F189.884338379
aF235.089904785
aF3250.7054746743297
aF2042.3488161268945
aa(lp2123
F189.917327881
aF235.041213989
aF3250.7384641763297
aF2042.3001253308944
aa(lp2124
F189.940689087
aF235.004547119
aF3250.76182538233
aF2042.2634584608945
aa(lp2125
F189.996994019
aF234.930908203
aF3250.8181303143297
aF2042.1898195448944
aa(lp2126
F190.044631958
aF234.83996582
aF3250.86576825333
aF2042.0988771618945
aa(lp2127
F190.075958252
aF234.777130127
aF3250.8970945473297
aF2042.0360414688944
aa(lp2128
F190.130065918
aF234.640335083
aF3250.95120221333
aF2041.8992464248945
aa(lp2129
F190.163711548
aF234.513442993
aF3250.9848478433296
aF2041.7723543348943
aa(lp2130
F190.197143555
aF234.368362427
aF3251.0182798503297
aF2041.6272737688944
aa(lp2131
F190.248825073
aF234.187057495
aF3251.0699613683296
aF2041.4459688368945
aa(lp2132
F190.278320312
aF234.03276062
aF3251.0994566073296
aF2041.2916719618945
aa(lp2133
F190.302108765
aF233.823043823
aF3251.1232450603297
aF2041.0819551648945
aa(lp2134
F190.300537109
aF233.590408325
aF3251.1216734043296
aF2040.8493196668944
aa(lp2135
F190.290283203
aF233.434265137
aF3251.1114194983297
aF2040.6931764788944
aa(lp2136
F190.253753662
aF233.189056396
aF3251.07488995733
aF2040.4479677378945
aa(lp2137
F190.187210083
aF232.925933838
aF3251.00834637833
aF2040.1848451798944
aa(lp2138
F190.103164673
aF232.687805176
aF3250.9243009683296
aF2039.9467165178944
aa(lp2139
F189.955749512
aF232.380706787
aF3250.7768858073296
aF2039.6396181288944
aa(lp2140
F189.752410889
aF232.061325073
aF3250.57354718433
aF2039.3202364148945
aa(lp2141
F189.548141479
aF231.793746948
aF3250.36927777433
aF2039.0526582898945
aa(lp2142
F189.257095337
aF231.487304688
aF3250.07823163233
aF2038.7462160298944
aa(lp2143
F189.045791626
aF231.283981323
aF3249.86692792133
aF2038.5428926648945
aa(lp2144
F188.700531006
aF231.000640869
aF3249.5216673013297
aF2038.2595522108945
aa(lp2145
F188.247970581
aF230.674438477
aF3249.06910687633
aF2037.9333498188944
aa(lp2146
F187.94758606
aF230.487625122
aF3248.76872235533
aF2037.7465364638945
aa(lp2147
F187.462722778
aF230.204483032
aF3248.28385907333
aF2037.4633943738945
aa(lp2148
F186.941452026
aF229.918869019
aF3247.76258832133
aF2037.1777803608943
aa(lp2149
F186.460708618
aF229.67024231
aF3247.2818449133297
aF2036.9291536518945
aa(lp2150
F185.868255615
aF229.388458252
aF3246.68939191033
aF2036.6473695938944
aa(lp2151
F185.232559204
aF229.09487915
aF3246.05369549933
aF2036.3537904918944
aa(lp2152
F184.706298828
aF228.855667114
aF3245.5274351233297
aF2036.1145784558944
aa(lp2153
F184.071670532
aF228.559753418
aF3244.89280682733
aF2035.8186647598945
aa(lp2154
F183.620880127
aF228.344055176
aF3244.4420164223297
aF2035.6029665178944
aa(lp2155
F182.822814941
aF227.9556427
aF3243.64395123633
aF2035.2145540418944
aa(lp2156
F182.133346558
aF227.619537354
aF3242.95448285333
aF2034.8784486958943
aa(lp2157
F181.65852356
aF227.39074707
aF3242.47965985533
aF2034.6496584118945
aa(lp2158
F180.928344727
aF227.031417847
aF3241.7494810223297
aF2034.2903291888945
aa(lp2159
F180.173095703
aF226.651000977
aF3240.9942319983297
aF2033.9099123188944
aa(lp2160
F179.534744263
aF226.333816528
aF3240.3558805583298
aF2033.5927278698944
aa(lp2161
F178.757293701
aF225.948684692
aF3239.5784299963298
aF2033.2075960338943
aa(lp2162
F178.236190796
aF225.686904907
aF3239.0573270913296
aF2032.9458162488945
aa(lp2163
F177.312850952
aF225.22492981
aF3238.13398724733
aF2032.4838411518945
aa(lp2164
F176.506500244
aF224.821075439
aF3237.32763653933
aF2032.0799867808944
aa(lp2165
F175.821472168
aF224.481124878
aF3236.64260846333
aF2031.7400362198944
aa(lp2166
F175.123382568
aF224.133407593
aF3235.94451886333
aF2031.3923189348943
aa(lp2167
F174.25944519
aF223.710998535
aF3235.0805814853297
aF2030.9699098768945
aa(lp2168
F173.516067505
aF223.345535278
aF3234.33720380033
aF2030.6044466198944
aa(lp2169
F172.621139526
aF222.912445068
aF3233.44227582133
aF2030.1713564098945
aa(lp2170
F171.704391479
aF222.471466064
aF3232.52552777433
aF2029.7303774058944
aa(lp2171
F170.95199585
aF222.110153198
aF3231.77313214533
aF2029.3690645398945
aa(lp2172
F170.06867981
aF221.678741455
aF3230.88981610533
aF2028.9376527968943
aa(lp2173
F169.163482666
aF221.255203247
aF3229.98461896133
aF2028.5141145888945
aa(lp2174
F168.405792236
aF220.902130127
aF3229.2269285313296
aF2028.1610414688944
aa(lp2175
F167.508071899
aF220.483642578
aF3228.3292081943296
aF2027.7425539198944
aa(lp2176
F166.75428772
aF220.132278442
aF3227.5754240153296
aF2027.3911897838943
aa(lp2177
F166.001678467
aF219.781097412
aF3226.82281476233
aF2027.0400087538944
aa(lp2178
F164.960601807
aF219.29473877
aF3225.7817381023297
aF2026.5536501118945
aa(lp2179
F164.360565186
aF219.017913818
aF3225.1817014813296
aF2026.2768251598945
aa(lp2180
F163.42401123
aF218.587158203
aF3224.2451475253297
aF2025.8460695448944
aa(lp2181
F162.513168335
aF218.171646118
aF3223.33430463033
aF2025.4305574598943
aa(lp2182
F161.772872925
aF217.839263916
aF3222.59400922033
aF2025.0981752578944
aa(lp2183
F160.858413696
aF217.421981812
aF3221.6795499913296
aF2024.6808931538944
aa(lp2184
F159.911087036
aF216.993103027
aF3220.73222333133
aF2024.2520143688944
aa(lp2185
F159.139633179
aF216.643493652
aF3219.96076947433
aF2023.9024049938944
aa(lp2186
F158.356292725
aF216.29006958
aF3219.17742902033
aF2023.5489809218943
aa(lp2187
F157.587982178
aF215.946960449
aF3218.4091184733297
aF2023.2058717908944
aa(lp2188
F156.702407837
aF215.554473877
aF3217.52354413233
aF2022.8133852188944
aa(lp2189
F155.839248657
aF215.170120239
aF3216.66038495233
aF2022.4290315808944
aa(lp2190
F155.13444519
aF214.848617554
aF3215.9555814853297
aF2022.1075288958943
aa(lp2191
F154.284805298
aF214.452438354
aF3215.1059415933296
aF2021.7113496958943
aa(lp2192
F153.449508667
aF214.069213867
aF3214.2706449623297
aF2021.3281252088943
aa(lp2193
F152.780944824
aF213.764129639
aF3213.60208111933
aF2021.0230409808944
aa(lp2194
F152.016403198
aF213.420425415
aF3212.8375394933296
aF2020.6793367568944
aa(lp2195
F151.400619507
aF213.144424438
aF3212.22175580233
aF2020.4033357798944
aa(lp2196
F150.664535522
aF212.817138672
aF3211.4856718173296
aF2020.0760500138945
aa(lp2197
F149.92779541
aF212.493545532
aF3210.7489317053296
aF2019.7524568738945
aa(lp2198
F149.435791016
aF212.280014038
aF3210.25692731133
aF2019.5389253798944
aa(lp2199
F148.710327148
aF211.963226318
aF3209.53146344333
aF2019.2221376598945
aa(lp2200
F147.999938965
aF211.649276733
aF3208.82107526033
aF2018.9081880748945
aa(lp2201
F147.412628174
aF211.394042969
aF3208.23376446933
aF2018.6529543108945
aa(lp2202
F146.738830566
aF211.094787598
aF3207.55996686133
aF2018.3536989398945
aa(lp2203
F146.16506958
aF210.841003418
aF3206.9862058753297
aF2018.0999147598945
aa(lp2204
F145.49520874
aF210.549972534
aF3206.31634503533
aF2017.8088838758945
aa(lp2205
F144.823959351
aF210.261474609
aF3205.64509564633
aF2017.5203859508945
aa(lp2206
F144.2943573
aF210.030807495
aF3205.11549359533
aF2017.2897188368945
aa(lp2207
F143.692382812
aF209.760513306
aF3204.5135191073296
aF2017.0194246478945
aa(lp2208
F143.09564209
aF209.4949646
aF3203.91677838533
aF2016.7538759418944
aa(lp2209
F142.596084595
aF209.272216797
aF3203.4172208903296
aF2016.5311281388945
aa(lp2210
F141.985061646
aF209.000640869
aF3202.8061979413296
aF2016.2595522108945
aa(lp2211
F141.48210144
aF208.778030396
aF3202.3032377353297
aF2016.0369417378945
aa(lp2212
F140.980239868
aF208.554626465
aF3201.8013761633297
aF2015.8135378068944
aa(lp2213
F140.374252319
aF208.284545898
aF3201.1953886143297
aF2015.5434572398945
aa(lp2214
F139.979812622
aF208.110870361
aF3200.8009489173296
aF2015.3697817028944
aa(lp2215
F139.297302246
aF207.805786133
aF3200.11843854133
aF2015.0646974748945
aa(lp2216
F138.731033325
aF207.550674438
aF3199.5521696203296
aF2014.8095857798944
aa(lp2217
F138.348144531
aF207.377471924
aF3199.1692808263297
aF2014.6363832658944
aa(lp2218
F137.778839111
aF207.113250732
aF3198.5999754063296
aF2014.3721620738945
aa(lp2219
F137.215454102
aF206.854156494
aF3198.0365903973297
aF2014.1130678358945
aa(lp2220
F136.726287842
aF206.633132935
aF3197.54742413733
aF2013.8920442768945
aa(lp2221
F136.183151245
aF206.377792358
aF3197.0042875403296
aF2013.6367036998945
aa(lp2222
F135.735427856
aF206.170654297
aF3196.55656415133
aF2013.4295656388945
aa(lp2223
F135.225585938
aF205.900466919
aF3196.04672223333
aF2013.1593782608943
aa(lp2224
F134.749984741
aF205.60395813
aF3195.5711210363297
aF2012.8628694718943
aa(lp2225
F134.397003174
aF205.353469849
aF3195.21813946933
aF2012.6123811908944
aa(lp2226
F133.890777588
aF205.093917847
aF3194.7119138833295
aF2012.3528291888945
aa(lp2227
F133.327514648
aF204.853240967
aF3194.14865094333
aF2012.1121523088943
aa(lp2228
F132.750335693
aF204.618728638
aF3193.57147198833
aF2011.8776399798944
aa(lp2229
F132.026687622
aF204.317321777
aF3192.8478239173296
aF2011.5762331188944
aa(lp2230
F131.292053223
aF204.015686035
aF3192.11318951833
aF2011.2745973768945
aa(lp2231
F130.673797607
aF203.758758545
aF3191.4949339023296
aF2011.0176698868945
aa(lp2232
F129.935516357
aF203.450576782
aF3190.7566526523296
aF2010.7094881238945
aa(lp2233
F129.189224243
aF203.141082764
aF3190.0103605383297
aF2010.3999941058944
aa(lp2234
F128.58265686
aF202.87701416
aF3189.40379315533
aF2010.1359255018945
aa(lp2235
F127.856880188
aF202.551422119
aF3188.67801648333
aF2009.8103334608945
aa(lp2236
F127.247703552
aF202.280914307
aF3188.06883984733
aF2009.5398256488943
aa(lp2237
F126.510055542
aF201.947921753
aF3187.3311918373297
aF2009.2068330948944
aa(lp2238
F125.880432129
aF201.658462524
aF3186.7015684243297
aF2008.9173738658944
aa(lp2239
F125.085441589
aF201.283325195
aF3185.9065778843296
aF2008.5422365368945
aa(lp2240
F124.289642334
aF200.906616211
aF3185.1107786293296
aF2008.1655275528944
aa(lp2241
F123.757003784
aF200.647323608
aF3184.57814007933
aF2007.9062349498945
aa(lp2242
F122.94594574
aF200.249191284
aF3183.7670820353296
aF2007.5081026258945
aa(lp2243
F122.108436584
aF199.839035034
aF3182.92957287933
aF2007.0979463758945
aa(lp2244
F121.236236572
aF199.406723022
aF3182.05737286733
aF2006.6656343638945
aa(lp2245
F120.498847961
aF199.045303345
aF3181.31998425633
aF2006.3042146868945
aa(lp2246
F119.617324829
aF198.599258423
aF3180.43846112433
aF2005.8581697648945
aa(lp2247
F119.026107788
aF198.303237915
aF3179.8472440833298
aF2005.5621492568944
aa(lp2248
F118.000267029
aF197.777435303
aF3178.82140332433
aF2005.0363466448944
aa(lp2249
F117.224014282
aF197.37361145
aF3178.04515057733
aF2004.6325227918944
aa(lp2250
F116.479515076
aF196.983062744
aF3177.30065137133
aF2004.2419740858945
aa(lp2251
F115.579727173
aF196.513504028
aF3176.4008634683296
aF2003.7724153698944
aa(lp2252
F114.841697693
aF196.132247925
aF3175.6628339883296
aF2003.3911592668944
aa(lp2253
F113.920967102
aF195.652755737
aF3174.7421033973296
aF2002.9116670788944
aa(lp2254
F113.016670227
aF195.171981812
aF3173.8378065223296
aF2002.4308931538944
aa(lp2255
F112.27482605
aF194.780288696
aF3173.09596234533
aF2002.0392000378945
aa(lp2256
F111.426643372
aF194.327163696
aF3172.2477796673297
aF2001.5860750378945
aa(lp2257
F110.551498413
aF193.857192993
aF3171.3726347083298
aF2001.1161043348943
aa(lp2258
F109.834960938
aF193.471069336
aF3170.65609723333
aF2000.7299806778944
aa(lp2259
F108.992599487
aF193.016479492
aF3169.81373578233
aF2000.2753908338943
aa(lp2260
F108.447013855
aF192.717834473
aF3169.26815015033
aF1999.9767458148945
aa(lp2261
F107.523963928
aF192.212631226
aF3168.3451002233296
aF1999.4715425678944
aa(lp2262
F106.90398407
aF191.877639771
aF3167.72512036533
aF1999.1365511128945
aa(lp2263
F106.290809631
aF191.546035767
aF3167.11194592633
aF1998.8049471088943
aa(lp2264
F105.554000854
aF191.151687622
aF3166.37513714933
aF1998.4105989638945
aa(lp2265
F104.821609497
aF190.752410889
aF3165.6427457923296
aF1998.0113222308944
aa(lp2266
F104.211524963
aF190.436065674
aF3165.03266125833
aF1997.6949770158944
aa(lp2267
F103.507507324
aF190.075531006
aF3164.32864361933
aF1997.3344423478943
aa(lp2268
F103.046195984
aF189.853271484
aF3163.8673322793297
aF1997.1121828258945
aa(lp2269
F102.233177185
aF189.425842285
aF3163.0543134803297
aF1996.6847536268945
aa(lp2270
F101.574478149
aF189.06628418
aF3162.3956144443296
aF1996.3251955218943
aa(lp2271
F100.984474182
aF188.745513916
aF3161.80561047733
aF1996.0044252578944
aa(lp2272
F100.352989197
aF188.423171997
aF3161.17412549233
aF1995.6820833388945
aa(lp2273
F99.8532485962
aF188.157897949
aF3160.67438489153
aF1995.4168092908944
aa(lp2274
F99.2523422241
aF187.82774353
aF3160.07347851943
aF1995.0866548718943
aa(lp2275
F98.619178772
aF187.494064331
aF3159.4403150673297
aF1994.7529756728945
aa(lp2276
F98.089630127
aF187.217849731
aF3158.9107664223297
aF1994.4767610728945
aa(lp2277
F97.4395599365
aF186.880554199
aF3158.2606962318296
aF1994.1394655408944
aa(lp2278
F96.7733612061
aF186.522659302
aF3157.59449750143
aF1993.7815706438944
aa(lp2279
F96.3168029785
aF186.268386841
aF3157.13793927383
aF1993.5272981828944
aa(lp2280
F95.5006637573
aF185.82359314
aF3156.32180005263
aF1993.0825044818944
aa(lp2281
F94.8948059082
aF185.510848999
aF3155.7159422035297
aF1992.7697603408944
aa(lp2282
F94.2887496948
aF185.184509277
aF3155.10988599013
aF1992.4434206188944
aa(lp2283
F93.4017791748
aF184.71421814
aF3154.22291547013
aF1991.9731294818944
aa(lp2284
F92.8650588989
aF184.446075439
aF3153.6861951942296
aF1991.7049867808944
aa(lp2285
F92.0461349487
aF184.018310547
aF3152.86727124403
aF1991.2772218888945
aa(lp2286
F91.2403564453
aF183.604354858
aF3152.0614927406295
aF1990.8632661998945
aa(lp2287
F90.5587692261
aF183.27696228
aF3151.37990552143
aF1990.5358736218943
aa(lp2288
F89.7314910889
aF182.863983154
aF3150.5526273842297
aF1990.1228944958943
aa(lp2289
F88.862411499
aF182.415710449
aF3149.6835477943296
aF1989.6746217908944
aa(lp2290
F88.153755188
aF182.065612793
aF3148.97489148333
aF1989.3245241348945
aa(lp2291
F87.3131637573
aF181.633850098
aF3148.13430005263
aF1988.8927614398945
aa(lp2292
F86.7386932373
aF181.331588745
aF3147.55982953263
aF1988.5905000868945
aa(lp2293
F85.717666626
aF180.816741943
aF3146.53880292133
aF1988.0756532848945
aa(lp2294
F84.8192596436
aF180.379684448
aF3145.64039593893
aF1987.6385957898945
aa(lp2295
F84.0633163452
aF179.999526978
aF3144.8844526405296
aF1987.2584383198944
aa(lp2296
F83.2930297852
aF179.614929199
aF3144.1141660805297
aF1986.8738405408944
aa(lp2297
F82.3159408569
aF179.12298584
aF3143.1370771522297
aF1986.3818971818944
aa(lp2298
F81.6488876343
aF178.808303833
aF3142.47002392963
aF1986.0672151748945
aa(lp2299
F80.6773910522
aF178.367935181
aF3141.49852734753
aF1985.6268465228945
aa(lp2300
F79.5614776611
aF177.852737427
aF3140.38261395643
aF1985.1116487688944
aa(lp2301
F78.8939208984
aF177.544204712
aF3139.71505719373
aF1984.8031160538944
aa(lp2302
F77.7289505005
aF177.039260864
aF3138.55008679583
aF1984.2981722058944
aa(lp2303
F76.764541626
aF176.624633789
aF3137.58567792133
aF1983.8835451308944
aa(lp2304
F75.8581924438
aF176.226760864
aF3136.6793287391297
aF1983.4856722058944
aa(lp2305
F75.2641677856
aF175.965606689
aF3136.0853040809297
aF1983.2245180308944
aa(lp2306
F74.3603744507
aF175.571166992
aF3135.1815107460297
aF1982.8300783338943
aa(lp2307
F73.6349029541
aF175.275970459
aF3134.45603924943
aF1982.5348818008945
aa(lp2308
F72.7982330322
aF174.924377441
aF3133.61936932753
aF1982.1832887828944
aa(lp2309
F72.0043258667
aF174.57232666
aF3132.82546216203
aF1981.8312380018945
aa(lp2310
F71.2776107788
aF174.204971313
aF3132.0987470741297
aF1981.4638826548944
aa(lp2311
F70.5607833862
aF173.865447998
aF3131.38191968153
aF1981.1243593398945
aa(lp2312
F70.0011520386
aF173.626083374
aF3130.82228833393
aF1980.8849947158944
aa(lp2313
F69.2480621338
aF173.280273438
aF3130.0691984291298
aF1980.5391847798944
aa(lp2314
F68.4480743408
aF172.902435303
aF3129.2692106361296
aF1980.1613466448944
aa(lp2315
F67.7404098511
aF172.589401245
aF3128.56154614643
aF1979.8483125868945
aa(lp2316
F66.8393325806
aF172.215545654
aF3127.66046887593
aF1979.4744569958943
aa(lp2317
F65.932510376
aF171.819793701
aF3126.75364667133
aF1979.0787050428944
aa(lp2318
F65.1790390015
aF171.467498779
aF3126.0001752968296
aF1978.7264101208943
aa(lp2319
F64.2751922607
aF171.061981201
aF3125.0963285560297
aF1978.3208925428944
aa(lp2320
F63.5143737793
aF170.72694397
aF3124.33551007463
aF1977.9858553118945
aa(lp2321
F62.9000320435
aF170.464767456
aF3123.7211683388296
aF1977.7236787978945
aa(lp2322
F62.430721283
aF170.270080566
aF3123.2518575783297
aF1977.5289919078944
aa(lp2323
F61.4670028687
aF169.855331421
aF3122.28813916403
aF1977.1142427628945
aa(lp2324
F60.6507644653
aF169.509429932
aF3121.47190076063
aF1976.7683412738943
aa(lp2325
F59.6726341248
aF169.099273682
aF3120.4937704201297
aF1976.3581850238943
aa(lp2326
F58.6650657654
aF168.686538696
aF3119.4862020607297
aF1975.9454500378945
aa(lp2327
F57.8466186523
aF168.351394653
aF3118.66775494763
aF1975.6103059948944
aa(lp2328
F56.8429985046
aF167.955276489
aF3117.66413479993
aF1975.2141878308944
aa.