(lp0
ccopy_reg
_reconstructor
p1
(cgeometry_msgs.msg._Twist
Twist
p2
c__builtin__
object
p3
Ntp4
Rp5
(lp6
g1
(cgeometry_msgs.msg._Vector3
Vector3
p7
g3
Ntp8
Rp9
(lp10
F0.41494006185171245
aF0.0
aF0.0
abag1
(g7
g3
Ntp11
Rp12
(lp13
F0.0
aF0.0
aF-0.10316485789439422
ababag1
(g2
g3
Ntp14
Rp15
(lp16
g1
(g7
g3
Ntp17
Rp18
(lp19
F0.6501165338104116
aF0.0
aF0.0
abag1
(g7
g3
Ntp20
Rp21
(lp22
F0.0
aF0.0
aF-0.12788811052367346
ababag1
(g2
g3
Ntp23
Rp24
(lp25
g1
(g7
g3
Ntp26
Rp27
(lp28
F0.8155540382715804
aF0.0
aF0.0
abag1
(g7
g3
Ntp29
Rp30
(lp31
F0.0
aF0.0
aF-0.11964662117624726
ababag1
(g2
g3
Ntp32
Rp33
(lp34
g1
(g7
g3
Ntp35
Rp36
(lp37
F0.9629738827149658
aF0.0
aF0.0
abag1
(g7
g3
Ntp38
Rp39
(lp40
F0.0
aF0.0
aF-0.13393614817896968
ababag1
(g2
g3
Ntp41
Rp42
(lp43
g1
(g7
g3
Ntp44
Rp45
(lp46
F1.0286447243454804
aF0.0
aF0.0
abag1
(g7
g3
Ntp47
Rp48
(lp49
F0.0
aF0.0
aF-0.1279355063960985
ababag1
(g2
g3
Ntp50
Rp51
(lp52
g1
(g7
g3
Ntp53
Rp54
(lp55
F1.1739468009834328
aF0.0
aF0.0
abag1
(g7
g3
Ntp56
Rp57
(lp58
F0.0
aF0.0
aF-0.09962107768384139
ababag1
(g2
g3
Ntp59
Rp60
(lp61
g1
(g7
g3
Ntp62
Rp63
(lp64
F1.2448944987773582
aF0.0
aF0.0
abag1
(g7
g3
Ntp65
Rp66
(lp67
F0.0
aF0.0
aF-0.1156602836391879
ababag1
(g2
g3
Ntp68
Rp69
(lp70
g1
(g7
g3
Ntp71
Rp72
(lp73
F1.393444199444462
aF0.0
aF0.0
abag1
(g7
g3
Ntp74
Rp75
(lp76
F0.0
aF0.0
aF-0.10694250743977592
ababag1
(g2
g3
Ntp77
Rp78
(lp79
g1
(g7
g3
Ntp80
Rp81
(lp82
F1.502993911080678
aF0.0
aF0.0
abag1
(g7
g3
Ntp83
Rp84
(lp85
F0.0
aF0.0
aF-0.11848118507597784
ababag1
(g2
g3
Ntp86
Rp87
(lp88
g1
(g7
g3
Ntp89
Rp90
(lp91
F1.6498042697415733
aF0.0
aF0.0
abag1
(g7
g3
Ntp92
Rp93
(lp94
F0.0
aF0.0
aF-0.12530921516939822
ababag1
(g2
g3
Ntp95
Rp96
(lp97
g1
(g7
g3
Ntp98
Rp99
(lp100
F1.7617773193035242
aF0.0
aF0.0
abag1
(g7
g3
Ntp101
Rp102
(lp103
F0.0
aF0.0
aF-0.14102471732996022
ababag1
(g2
g3
Ntp104
Rp105
(lp106
g1
(g7
g3
Ntp107
Rp108
(lp109
F1.935309856963132
aF0.0
aF0.0
abag1
(g7
g3
Ntp110
Rp111
(lp112
F0.0
aF0.0
aF-0.12640121484922853
ababag1
(g2
g3
Ntp113
Rp114
(lp115
g1
(g7
g3
Ntp116
Rp117
(lp118
F2.1094881633996208
aF0.0
aF0.0
abag1
(g7
g3
Ntp119
Rp120
(lp121
F0.0
aF0.0
aF-0.1251726322066212
ababag1
(g2
g3
Ntp122
Rp123
(lp124
g1
(g7
g3
Ntp125
Rp126
(lp127
F2.2793593248033344
aF0.0
aF0.0
abag1
(g7
g3
Ntp128
Rp129
(lp130
F0.0
aF0.0
aF-0.12652957919388103
ababag1
(g2
g3
Ntp131
Rp132
(lp133
g1
(g7
g3
Ntp134
Rp135
(lp136
F2.433995018586989
aF0.0
aF0.0
abag1
(g7
g3
Ntp137
Rp138
(lp139
F0.0
aF0.0
aF-0.042785621087903035
ababag1
(g2
g3
Ntp140
Rp141
(lp142
g1
(g7
g3
Ntp143
Rp144
(lp145
F2.657235315313779
aF0.0
aF0.0
abag1
(g7
g3
Ntp146
Rp147
(lp148
F0.0
aF0.0
aF-0.04279101850577706
ababag1
(g2
g3
Ntp149
Rp150
(lp151
g1
(g7
g3
Ntp152
Rp153
(lp154
F2.7188881580339417
aF0.0
aF0.0
abag1
(g7
g3
Ntp155
Rp156
(lp157
F0.0
aF0.0
aF-8.339568024754832e-05
ababag1
(g2
g3
Ntp158
Rp159
(lp160
g1
(g7
g3
Ntp161
Rp162
(lp163
F2.728170926933314
aF0.0
aF0.0
abag1
(g7
g3
Ntp164
Rp165
(lp166
F0.0
aF0.0
aF0.06378077777725294
ababag1
(g2
g3
Ntp167
Rp168
(lp169
g1
(g7
g3
Ntp170
Rp171
(lp172
F2.7013854518083233
aF0.0
aF0.0
abag1
(g7
g3
Ntp173
Rp174
(lp175
F0.0
aF0.0
aF0.11768964810606766
ababag1
(g2
g3
Ntp176
Rp177
(lp178
g1
(g7
g3
Ntp179
Rp180
(lp181
F2.677759607306978
aF0.0
aF0.0
abag1
(g7
g3
Ntp182
Rp183
(lp184
F0.0
aF0.0
aF0.14993300225416428
ababag1
(g2
g3
Ntp185
Rp186
(lp187
g1
(g7
g3
Ntp188
Rp189
(lp190
F2.6757668694411056
aF0.0
aF0.0
abag1
(g7
g3
Ntp191
Rp192
(lp193
F0.0
aF0.0
aF0.18817912073802276
ababag1
(g2
g3
Ntp194
Rp195
(lp196
g1
(g7
g3
Ntp197
Rp198
(lp199
F2.5977556314548513
aF0.0
aF0.0
abag1
(g7
g3
Ntp200
Rp201
(lp202
F0.0
aF0.0
aF0.21386092266857382
ababag1
(g2
g3
Ntp203
Rp204
(lp205
g1
(g7
g3
Ntp206
Rp207
(lp208
F2.571110510179899
aF0.0
aF0.0
abag1
(g7
g3
Ntp209
Rp210
(lp211
F0.0
aF0.0
aF0.16916700285333416
ababag1
(g2
g3
Ntp212
Rp213
(lp214
g1
(g7
g3
Ntp215
Rp216
(lp217
F2.5136679615115938
aF0.0
aF0.0
abag1
(g7
g3
Ntp218
Rp219
(lp220
F0.0
aF0.0
aF0.1574235871906149
ababag1
(g2
g3
Ntp221
Rp222
(lp223
g1
(g7
g3
Ntp224
Rp225
(lp226
F2.4394722927997443
aF0.0
aF0.0
abag1
(g7
g3
Ntp227
Rp228
(lp229
F0.0
aF0.0
aF0.16224508355673822
ababag1
(g2
g3
Ntp230
Rp231
(lp232
g1
(g7
g3
Ntp233
Rp234
(lp235
F2.3463765559371637
aF0.0
aF0.0
abag1
(g7
g3
Ntp236
Rp237
(lp238
F0.0
aF0.0
aF0.16392895581632577
ababag1
(g2
g3
Ntp239
Rp240
(lp241
g1
(g7
g3
Ntp242
Rp243
(lp244
F2.2365444030651287
aF0.0
aF0.0
abag1
(g7
g3
Ntp245
Rp246
(lp247
F0.0
aF0.0
aF0.17423320383131485
ababag1
(g2
g3
Ntp248
Rp249
(lp250
g1
(g7
g3
Ntp251
Rp252
(lp253
F2.2034765745222695
aF0.0
aF0.0
abag1
(g7
g3
Ntp254
Rp255
(lp256
F0.0
aF0.0
aF0.15184751567149374
ababag1
(g2
g3
Ntp257
Rp258
(lp259
g1
(g7
g3
Ntp260
Rp261
(lp262
F2.1396823136675436
aF0.0
aF0.0
abag1
(g7
g3
Ntp263
Rp264
(lp265
F0.0
aF0.0
aF0.17295890555992283
ababag1
(g2
g3
Ntp266
Rp267
(lp268
g1
(g7
g3
Ntp269
Rp270
(lp271
F2.029141289959137
aF0.0
aF0.0
abag1
(g7
g3
Ntp272
Rp273
(lp274
F0.0
aF0.0
aF0.18129584501889703
ababag1
(g2
g3
Ntp275
Rp276
(lp277
g1
(g7
g3
Ntp278
Rp279
(lp280
F1.9590651506679289
aF0.0
aF0.0
abag1
(g7
g3
Ntp281
Rp282
(lp283
F0.0
aF0.0
aF0.15091544717473562
ababag1
(g2
g3
Ntp284
Rp285
(lp286
g1
(g7
g3
Ntp287
Rp288
(lp289
F1.8809164635896594
aF0.0
aF0.0
abag1
(g7
g3
Ntp290
Rp291
(lp292
F0.0
aF0.0
aF0.13916401485772972
ababag1
(g2
g3
Ntp293
Rp294
(lp295
g1
(g7
g3
Ntp296
Rp297
(lp298
F1.785525273264883
aF0.0
aF0.0
abag1
(g7
g3
Ntp299
Rp300
(lp301
F0.0
aF0.0
aF0.15436534704030205
ababag1
(g2
g3
Ntp302
Rp303
(lp304
g1
(g7
g3
Ntp305
Rp306
(lp307
F1.668337531993497
aF0.0
aF0.0
abag1
(g7
g3
Ntp308
Rp309
(lp310
F0.0
aF0.0
aF0.17346587726775603
ababag1
(g2
g3
Ntp311
Rp312
(lp313
g1
(g7
g3
Ntp314
Rp315
(lp316
F1.5903269755440324
aF0.0
aF0.0
abag1
(g7
g3
Ntp317
Rp318
(lp319
F0.0
aF0.0
aF0.1523805494083329
ababag1
(g2
g3
Ntp320
Rp321
(lp322
g1
(g7
g3
Ntp323
Rp324
(lp325
F1.6687159701852399
aF0.0
aF0.0
abag1
(g7
g3
Ntp326
Rp327
(lp328
F0.0
aF0.0
aF0.11930987733748014
ababag1
(g2
g3
Ntp329
Rp330
(lp331
g1
(g7
g3
Ntp332
Rp333
(lp334
F1.7442733829300112
aF0.0
aF0.0
abag1
(g7
g3
Ntp335
Rp336
(lp337
F0.0
aF0.0
aF0.09350753424447864
ababag1
(g2
g3
Ntp338
Rp339
(lp340
g1
(g7
g3
Ntp341
Rp342
(lp343
F1.821340561128471
aF0.0
aF0.0
abag1
(g7
g3
Ntp344
Rp345
(lp346
F0.0
aF0.0
aF0.10501722871515688
ababag1
(g2
g3
Ntp347
Rp348
(lp349
g1
(g7
g3
Ntp350
Rp351
(lp352
F1.8910437698218512
aF0.0
aF0.0
abag1
(g7
g3
Ntp353
Rp354
(lp355
F0.0
aF0.0
aF0.09392705753958909
ababag1
(g2
g3
Ntp356
Rp357
(lp358
g1
(g7
g3
Ntp359
Rp360
(lp361
F1.953560628485238
aF0.0
aF0.0
abag1
(g7
g3
Ntp362
Rp363
(lp364
F0.0
aF0.0
aF0.08247759244057627
ababag1
(g2
g3
Ntp365
Rp366
(lp367
g1
(g7
g3
Ntp368
Rp369
(lp370
F2.0319370105229946
aF0.0
aF0.0
abag1
(g7
g3
Ntp371
Rp372
(lp373
F0.0
aF0.0
aF0.061347529857876865
ababag1
(g2
g3
Ntp374
Rp375
(lp376
g1
(g7
g3
Ntp377
Rp378
(lp379
F2.097144064366022
aF0.0
aF0.0
abag1
(g7
g3
Ntp380
Rp381
(lp382
F0.0
aF0.0
aF-0.0069043143574556935
ababag1
(g2
g3
Ntp383
Rp384
(lp385
g1
(g7
g3
Ntp386
Rp387
(lp388
F2.168897895795821
aF0.0
aF0.0
abag1
(g7
g3
Ntp389
Rp390
(lp391
F0.0
aF0.0
aF-0.07133613746428262
ababag1
(g2
g3
Ntp392
Rp393
(lp394
g1
(g7
g3
Ntp395
Rp396
(lp397
F2.2465068945824505
aF0.0
aF0.0
abag1
(g7
g3
Ntp398
Rp399
(lp400
F0.0
aF0.0
aF-0.10893500127185084
ababag1
(g2
g3
Ntp401
Rp402
(lp403
g1
(g7
g3
Ntp404
Rp405
(lp406
F2.3271047834286285
aF0.0
aF0.0
abag1
(g7
g3
Ntp407
Rp408
(lp409
F0.0
aF0.0
aF-0.11558700495049144
ababag1
(g2
g3
Ntp410
Rp411
(lp412
g1
(g7
g3
Ntp413
Rp414
(lp415
F2.3396558895635846
aF0.0
aF0.0
abag1
(g7
g3
Ntp416
Rp417
(lp418
F0.0
aF0.0
aF-0.13274008229520814
ababag1
(g2
g3
Ntp419
Rp420
(lp421
g1
(g7
g3
Ntp422
Rp423
(lp424
F2.428164653956864
aF0.0
aF0.0
abag1
(g7
g3
Ntp425
Rp426
(lp427
F0.0
aF0.0
aF-0.13047691577669546
ababag1
(g2
g3
Ntp428
Rp429
(lp430
g1
(g7
g3
Ntp431
Rp432
(lp433
F2.385114503251323
aF0.0
aF0.0
abag1
(g7
g3
Ntp434
Rp435
(lp436
F0.0
aF0.0
aF-0.13892981799646645
ababag1
(g2
g3
Ntp437
Rp438
(lp439
g1
(g7
g3
Ntp440
Rp441
(lp442
F2.348011220848416
aF0.0
aF0.0
abag1
(g7
g3
Ntp443
Rp444
(lp445
F0.0
aF0.0
aF-0.15074333174431562
ababag1
(g2
g3
Ntp446
Rp447
(lp448
g1
(g7
g3
Ntp449
Rp450
(lp451
F2.3160971859928634
aF0.0
aF0.0
abag1
(g7
g3
Ntp452
Rp453
(lp454
F0.0
aF0.0
aF-0.12585275105828472
ababag1
(g2
g3
Ntp455
Rp456
(lp457
g1
(g7
g3
Ntp458
Rp459
(lp460
F2.284860190258215
aF0.0
aF0.0
abag1
(g7
g3
Ntp461
Rp462
(lp463
F0.0
aF0.0
aF-0.1662962678535087
ababag1
(g2
g3
Ntp464
Rp465
(lp466
g1
(g7
g3
Ntp467
Rp468
(lp469
F2.2690276489438936
aF0.0
aF0.0
abag1
(g7
g3
Ntp470
Rp471
(lp472
F0.0
aF0.0
aF-0.21612442334066054
ababag1
(g2
g3
Ntp473
Rp474
(lp475
g1
(g7
g3
Ntp476
Rp477
(lp478
F2.1650342787035464
aF0.0
aF0.0
abag1
(g7
g3
Ntp479
Rp480
(lp481
F0.0
aF0.0
aF-0.22541175466103475
ababag1
(g2
g3
Ntp482
Rp483
(lp484
g1
(g7
g3
Ntp485
Rp486
(lp487
F2.0536093605633163
aF0.0
aF0.0
abag1
(g7
g3
Ntp488
Rp489
(lp490
F0.0
aF0.0
aF-0.21938516579096307
ababag1
(g2
g3
Ntp491
Rp492
(lp493
g1
(g7
g3
Ntp494
Rp495
(lp496
F1.985774534083372
aF0.0
aF0.0
abag1
(g7
g3
Ntp497
Rp498
(lp499
F0.0
aF0.0
aF-0.20021603962394832
ababag1
(g2
g3
Ntp500
Rp501
(lp502
g1
(g7
g3
Ntp503
Rp504
(lp505
F1.933047846223775
aF0.0
aF0.0
abag1
(g7
g3
Ntp506
Rp507
(lp508
F0.0
aF0.0
aF-0.21221369729394177
ababag1
(g2
g3
Ntp509
Rp510
(lp511
g1
(g7
g3
Ntp512
Rp513
(lp514
F2.0846432720170696
aF0.0
aF0.0
abag1
(g7
g3
Ntp515
Rp516
(lp517
F0.0
aF0.0
aF-0.1765365645859693
ababag1
(g2
g3
Ntp518
Rp519
(lp520
g1
(g7
g3
Ntp521
Rp522
(lp523
F2.0960544121282467
aF0.0
aF0.0
abag1
(g7
g3
Ntp524
Rp525
(lp526
F0.0
aF0.0
aF-0.11924372877273758
ababag1
(g2
g3
Ntp527
Rp528
(lp529
g1
(g7
g3
Ntp530
Rp531
(lp532
F2.0304700076506346
aF0.0
aF0.0
abag1
(g7
g3
Ntp533
Rp534
(lp535
F0.0
aF0.0
aF-0.16049827280383747
ababag1
(g2
g3
Ntp536
Rp537
(lp538
g1
(g7
g3
Ntp539
Rp540
(lp541
F2.063783181231998
aF0.0
aF0.0
abag1
(g7
g3
Ntp542
Rp543
(lp544
F0.0
aF0.0
aF-0.11599286450205437
ababag1
(g2
g3
Ntp545
Rp546
(lp547
g1
(g7
g3
Ntp548
Rp549
(lp550
F2.0438868981629086
aF0.0
aF0.0
abag1
(g7
g3
Ntp551
Rp552
(lp553
F0.0
aF0.0
aF-0.17870968249807484
ababag1
(g2
g3
Ntp554
Rp555
(lp556
g1
(g7
g3
Ntp557
Rp558
(lp559
F2.0412744670659193
aF0.0
aF0.0
abag1
(g7
g3
Ntp560
Rp561
(lp562
F0.0
aF0.0
aF-0.16037530430120825
ababag1
(g2
g3
Ntp563
Rp564
(lp565
g1
(g7
g3
Ntp566
Rp567
(lp568
F1.9662559325039914
aF0.0
aF0.0
abag1
(g7
g3
Ntp569
Rp570
(lp571
F0.0
aF0.0
aF-0.16861409042686515
ababag1
(g2
g3
Ntp572
Rp573
(lp574
g1
(g7
g3
Ntp575
Rp576
(lp577
F2.1081120192304654
aF0.0
aF0.0
abag1
(g7
g3
Ntp578
Rp579
(lp580
F0.0
aF0.0
aF-0.12125756414826667
ababag1
(g2
g3
Ntp581
Rp582
(lp583
g1
(g7
g3
Ntp584
Rp585
(lp586
F2.150459755803104
aF0.0
aF0.0
abag1
(g7
g3
Ntp587
Rp588
(lp589
F0.0
aF0.0
aF-0.15830059566073196
ababag1
(g2
g3
Ntp590
Rp591
(lp592
g1
(g7
g3
Ntp593
Rp594
(lp595
F2.1636621677177588
aF0.0
aF0.0
abag1
(g7
g3
Ntp596
Rp597
(lp598
F0.0
aF0.0
aF-0.13984205932953178
ababag1
(g2
g3
Ntp599
Rp600
(lp601
g1
(g7
g3
Ntp602
Rp603
(lp604
F2.3161513580785917
aF0.0
aF0.0
abag1
(g7
g3
Ntp605
Rp606
(lp607
F0.0
aF0.0
aF-0.14076810265934298
ababag1
(g2
g3
Ntp608
Rp609
(lp610
g1
(g7
g3
Ntp611
Rp612
(lp613
F2.384851864230221
aF0.0
aF0.0
abag1
(g7
g3
Ntp614
Rp615
(lp616
F0.0
aF0.0
aF-0.10611708885299298
ababag1
(g2
g3
Ntp617
Rp618
(lp619
g1
(g7
g3
Ntp620
Rp621
(lp622
F2.5708475370549944
aF0.0
aF0.0
abag1
(g7
g3
Ntp623
Rp624
(lp625
F0.0
aF0.0
aF-0.1468571823815093
ababag1
(g2
g3
Ntp626
Rp627
(lp628
g1
(g7
g3
Ntp629
Rp630
(lp631
F2.7167934520403887
aF0.0
aF0.0
abag1
(g7
g3
Ntp632
Rp633
(lp634
F0.0
aF0.0
aF-0.1253441502256234
ababag1
(g2
g3
Ntp635
Rp636
(lp637
g1
(g7
g3
Ntp638
Rp639
(lp640
F2.7245647548785126
aF0.0
aF0.0
abag1
(g7
g3
Ntp641
Rp642
(lp643
F0.0
aF0.0
aF-0.1299241042189758
ababag1
(g2
g3
Ntp644
Rp645
(lp646
g1
(g7
g3
Ntp647
Rp648
(lp649
F2.768468187968153
aF0.0
aF0.0
abag1
(g7
g3
Ntp650
Rp651
(lp652
F0.0
aF0.0
aF-0.0903828063807254
ababag1
(g2
g3
Ntp653
Rp654
(lp655
g1
(g7
g3
Ntp656
Rp657
(lp658
F2.729644950759151
aF0.0
aF0.0
abag1
(g7
g3
Ntp659
Rp660
(lp661
F0.0
aF0.0
aF-0.025962177118110472
ababag1
(g2
g3
Ntp662
Rp663
(lp664
g1
(g7
g3
Ntp665
Rp666
(lp667
F2.7235192734182623
aF0.0
aF0.0
abag1
(g7
g3
Ntp668
Rp669
(lp670
F0.0
aF0.0
aF0.017914864587290063
ababag1
(g2
g3
Ntp671
Rp672
(lp673
g1
(g7
g3
Ntp674
Rp675
(lp676
F2.730099507263282
aF0.0
aF0.0
abag1
(g7
g3
Ntp677
Rp678
(lp679
F0.0
aF0.0
aF0.07876716304704767
ababag1
(g2
g3
Ntp680
Rp681
(lp682
g1
(g7
g3
Ntp683
Rp684
(lp685
F2.725635331598704
aF0.0
aF0.0
abag1
(g7
g3
Ntp686
Rp687
(lp688
F0.0
aF0.0
aF0.08526194523674256
ababag1
(g2
g3
Ntp689
Rp690
(lp691
g1
(g7
g3
Ntp692
Rp693
(lp694
F2.723596559842076
aF0.0
aF0.0
abag1
(g7
g3
Ntp695
Rp696
(lp697
F0.0
aF0.0
aF0.11500555413210048
ababag1
(g2
g3
Ntp698
Rp699
(lp700
g1
(g7
g3
Ntp701
Rp702
(lp703
F2.7277719941550123
aF0.0
aF0.0
abag1
(g7
g3
Ntp704
Rp705
(lp706
F0.0
aF0.0
aF0.1097516442879132
ababag1
(g2
g3
Ntp707
Rp708
(lp709
g1
(g7
g3
Ntp710
Rp711
(lp712
F2.727565619640742
aF0.0
aF0.0
abag1
(g7
g3
Ntp713
Rp714
(lp715
F0.0
aF0.0
aF0.11670763546029049
ababag1
(g2
g3
Ntp716
Rp717
(lp718
g1
(g7
g3
Ntp719
Rp720
(lp721
F2.728377044879957
aF0.0
aF0.0
abag1
(g7
g3
Ntp722
Rp723
(lp724
F0.0
aF0.0
aF0.10657946541577516
ababag1
(g2
g3
Ntp725
Rp726
(lp727
g1
(g7
g3
Ntp728
Rp729
(lp730
F2.7196616582489073
aF0.0
aF0.0
abag1
(g7
g3
Ntp731
Rp732
(lp733
F0.0
aF0.0
aF0.0611200348397247
ababag1
(g2
g3
Ntp734
Rp735
(lp736
g1
(g7
g3
Ntp737
Rp738
(lp739
F2.727797616367468
aF0.0
aF0.0
abag1
(g7
g3
Ntp740
Rp741
(lp742
F0.0
aF0.0
aF0.03096460697264079
ababag1
(g2
g3
Ntp743
Rp744
(lp745
g1
(g7
g3
Ntp746
Rp747
(lp748
F2.7275428361178253
aF0.0
aF0.0
abag1
(g7
g3
Ntp749
Rp750
(lp751
F0.0
aF0.0
aF0.038019377707483856
ababag1
(g2
g3
Ntp752
Rp753
(lp754
g1
(g7
g3
Ntp755
Rp756
(lp757
F2.743812278056586
aF0.0
aF0.0
abag1
(g7
g3
Ntp758
Rp759
(lp760
F0.0
aF0.0
aF0.005463116232590215
ababag1
(g2
g3
Ntp761
Rp762
(lp763
g1
(g7
g3
Ntp764
Rp765
(lp766
F2.7406763829925698
aF0.0
aF0.0
abag1
(g7
g3
Ntp767
Rp768
(lp769
F0.0
aF0.0
aF-0.011563893335332762
ababag1
(g2
g3
Ntp770
Rp771
(lp772
g1
(g7
g3
Ntp773
Rp774
(lp775
F2.727267225639578
aF0.0
aF0.0
abag1
(g7
g3
Ntp776
Rp777
(lp778
F0.0
aF0.0
aF-0.010904269072927205
ababag1
(g2
g3
Ntp779
Rp780
(lp781
g1
(g7
g3
Ntp782
Rp783
(lp784
F2.7265994026337097
aF0.0
aF0.0
abag1
(g7
g3
Ntp785
Rp786
(lp787
F0.0
aF0.0
aF-0.015909006001037083
ababag1
(g2
g3
Ntp788
Rp789
(lp790
g1
(g7
g3
Ntp791
Rp792
(lp793
F2.7320619399876036
aF0.0
aF0.0
abag1
(g7
g3
Ntp794
Rp795
(lp796
F0.0
aF0.0
aF-0.010052498380876459
ababag1
(g2
g3
Ntp797
Rp798
(lp799
g1
(g7
g3
Ntp800
Rp801
(lp802
F2.7306572265903144
aF0.0
aF0.0
abag1
(g7
g3
Ntp803
Rp804
(lp805
F0.0
aF0.0
aF-0.008127208653780499
ababag1
(g2
g3
Ntp806
Rp807
(lp808
g1
(g7
g3
Ntp809
Rp810
(lp811
F2.726068321600214
aF0.0
aF0.0
abag1
(g7
g3
Ntp812
Rp813
(lp814
F0.0
aF0.0
aF-0.008688331380154405
ababag1
(g2
g3
Ntp815
Rp816
(lp817
g1
(g7
g3
Ntp818
Rp819
(lp820
F2.725344223754854
aF0.0
aF0.0
abag1
(g7
g3
Ntp821
Rp822
(lp823
F0.0
aF0.0
aF-0.012826307770680462
ababag1
(g2
g3
Ntp824
Rp825
(lp826
g1
(g7
g3
Ntp827
Rp828
(lp829
F2.731272487944317
aF0.0
aF0.0
abag1
(g7
g3
Ntp830
Rp831
(lp832
F0.0
aF0.0
aF-0.009764784113012492
ababag1
(g2
g3
Ntp833
Rp834
(lp835
g1
(g7
g3
Ntp836
Rp837
(lp838
F2.7198732037781306
aF0.0
aF0.0
abag1
(g7
g3
Ntp839
Rp840
(lp841
F0.0
aF0.0
aF-0.005971885700883191
ababag1
(g2
g3
Ntp842
Rp843
(lp844
g1
(g7
g3
Ntp845
Rp846
(lp847
F2.7262999053080597
aF0.0
aF0.0
abag1
(g7
g3
Ntp848
Rp849
(lp850
F0.0
aF0.0
aF-0.007438667632233575
ababag1
(g2
g3
Ntp851
Rp852
(lp853
g1
(g7
g3
Ntp854
Rp855
(lp856
F2.725173239675609
aF0.0
aF0.0
abag1
(g7
g3
Ntp857
Rp858
(lp859
F0.0
aF0.0
aF-0.00808604296958205
ababag1
(g2
g3
Ntp860
Rp861
(lp862
g1
(g7
g3
Ntp863
Rp864
(lp865
F2.752371888565203
aF0.0
aF0.0
abag1
(g7
g3
Ntp866
Rp867
(lp868
F0.0
aF0.0
aF-0.005260139312853294
ababag1
(g2
g3
Ntp869
Rp870
(lp871
g1
(g7
g3
Ntp872
Rp873
(lp874
F2.74689194011832
aF0.0
aF0.0
abag1
(g7
g3
Ntp875
Rp876
(lp877
F0.0
aF0.0
aF-0.006710773277732301
ababag1
(g2
g3
Ntp878
Rp879
(lp880
g1
(g7
g3
Ntp881
Rp882
(lp883
F2.725536310258566
aF0.0
aF0.0
abag1
(g7
g3
Ntp884
Rp885
(lp886
F0.0
aF0.0
aF-0.004477811384204941
ababag1
(g2
g3
Ntp887
Rp888
(lp889
g1
(g7
g3
Ntp890
Rp891
(lp892
F2.7270969980931583
aF0.0
aF0.0
abag1
(g7
g3
Ntp893
Rp894
(lp895
F0.0
aF0.0
aF-0.0028284964783145427
ababag1
(g2
g3
Ntp896
Rp897
(lp898
g1
(g7
g3
Ntp899
Rp900
(lp901
F2.729307304224545
aF0.0
aF0.0
abag1
(g7
g3
Ntp902
Rp903
(lp904
F0.0
aF0.0
aF-0.00436059126800217
ababag1
(g2
g3
Ntp905
Rp906
(lp907
g1
(g7
g3
Ntp908
Rp909
(lp910
F2.72957944965965
aF0.0
aF0.0
abag1
(g7
g3
Ntp911
Rp912
(lp913
F0.0
aF0.0
aF0.0019768722688825215
ababag1
(g2
g3
Ntp914
Rp915
(lp916
g1
(g7
g3
Ntp917
Rp918
(lp919
F2.719988687344563
aF0.0
aF0.0
abag1
(g7
g3
Ntp920
Rp921
(lp922
F0.0
aF0.0
aF0.00483511368272898
ababag1
(g2
g3
Ntp923
Rp924
(lp925
g1
(g7
g3
Ntp926
Rp927
(lp928
F2.719220138384839
aF0.0
aF0.0
abag1
(g7
g3
Ntp929
Rp930
(lp931
F0.0
aF0.0
aF0.00709111602414972
ababag1
(g2
g3
Ntp932
Rp933
(lp934
g1
(g7
g3
Ntp935
Rp936
(lp937
F2.7195411674626784
aF0.0
aF0.0
abag1
(g7
g3
Ntp938
Rp939
(lp940
F0.0
aF0.0
aF0.009213937079732087
ababag1
(g2
g3
Ntp941
Rp942
(lp943
g1
(g7
g3
Ntp944
Rp945
(lp946
F2.7226282448702697
aF0.0
aF0.0
abag1
(g7
g3
Ntp947
Rp948
(lp949
F0.0
aF0.0
aF0.01048620516162291
ababag1
(g2
g3
Ntp950
Rp951
(lp952
g1
(g7
g3
Ntp953
Rp954
(lp955
F2.7337336197701174
aF0.0
aF0.0
abag1
(g7
g3
Ntp956
Rp957
(lp958
F0.0
aF0.0
aF0.01079320413117032
ababag1
(g2
g3
Ntp959
Rp960
(lp961
g1
(g7
g3
Ntp962
Rp963
(lp964
F2.7292897478988007
aF0.0
aF0.0
abag1
(g7
g3
Ntp965
Rp966
(lp967
F0.0
aF0.0
aF0.012921544526297261
ababag1
(g2
g3
Ntp968
Rp969
(lp970
g1
(g7
g3
Ntp971
Rp972
(lp973
F2.7374083712142627
aF0.0
aF0.0
abag1
(g7
g3
Ntp974
Rp975
(lp976
F0.0
aF0.0
aF0.01926720925528068
ababag1
(g2
g3
Ntp977
Rp978
(lp979
g1
(g7
g3
Ntp980
Rp981
(lp982
F2.7447772690907692
aF0.0
aF0.0
abag1
(g7
g3
Ntp983
Rp984
(lp985
F0.0
aF0.0
aF0.028667299053896537
ababag1
(g2
g3
Ntp986
Rp987
(lp988
g1
(g7
g3
Ntp989
Rp990
(lp991
F2.7336505363884225
aF0.0
aF0.0
abag1
(g7
g3
Ntp992
Rp993
(lp994
F0.0
aF0.0
aF0.03799623416130759
ababag1
(g2
g3
Ntp995
Rp996
(lp997
g1
(g7
g3
Ntp998
Rp999
(lp1000
F2.7262909566481635
aF0.0
aF0.0
abag1
(g7
g3
Ntp1001
Rp1002
(lp1003
F0.0
aF0.0
aF0.05154798223300667
ababag1
(g2
g3
Ntp1004
Rp1005
(lp1006
g1
(g7
g3
Ntp1007
Rp1008
(lp1009
F2.729554850652425
aF0.0
aF0.0
abag1
(g7
g3
Ntp1010
Rp1011
(lp1012
F0.0
aF0.0
aF0.04742142354005627
ababag1
(g2
g3
Ntp1013
Rp1014
(lp1015
g1
(g7
g3
Ntp1016
Rp1017
(lp1018
F2.726038666278213
aF0.0
aF0.0
abag1
(g7
g3
Ntp1019
Rp1020
(lp1021
F0.0
aF0.0
aF0.058985578889466435
ababag1
(g2
g3
Ntp1022
Rp1023
(lp1024
g1
(g7
g3
Ntp1025
Rp1026
(lp1027
F2.7215430008560233
aF0.0
aF0.0
abag1
(g7
g3
Ntp1028
Rp1029
(lp1030
F0.0
aF0.0
aF0.08518889217810185
ababag1
(g2
g3
Ntp1031
Rp1032
(lp1033
g1
(g7
g3
Ntp1034
Rp1035
(lp1036
F2.722081480621644
aF0.0
aF0.0
abag1
(g7
g3
Ntp1037
Rp1038
(lp1039
F0.0
aF0.0
aF0.07822521673572971
ababag1
(g2
g3
Ntp1040
Rp1041
(lp1042
g1
(g7
g3
Ntp1043
Rp1044
(lp1045
F2.7232916894883252
aF0.0
aF0.0
abag1
(g7
g3
Ntp1046
Rp1047
(lp1048
F0.0
aF0.0
aF0.07325727768268689
ababag1
(g2
g3
Ntp1049
Rp1050
(lp1051
g1
(g7
g3
Ntp1052
Rp1053
(lp1054
F2.7206341530252534
aF0.0
aF0.0
abag1
(g7
g3
Ntp1055
Rp1056
(lp1057
F0.0
aF0.0
aF0.12426331368149972
ababag1
(g2
g3
Ntp1058
Rp1059
(lp1060
g1
(g7
g3
Ntp1061
Rp1062
(lp1063
F2.5974951496687484
aF0.0
aF0.0
abag1
(g7
g3
Ntp1064
Rp1065
(lp1066
F0.0
aF0.0
aF0.12142363686468019
ababag1
(g2
g3
Ntp1067
Rp1068
(lp1069
g1
(g7
g3
Ntp1070
Rp1071
(lp1072
F2.4950651163556237
aF0.0
aF0.0
abag1
(g7
g3
Ntp1073
Rp1074
(lp1075
F0.0
aF0.0
aF0.14266021430851902
ababag1
(g2
g3
Ntp1076
Rp1077
(lp1078
g1
(g7
g3
Ntp1079
Rp1080
(lp1081
F2.3761111067431533
aF0.0
aF0.0
abag1
(g7
g3
Ntp1082
Rp1083
(lp1084
F0.0
aF0.0
aF0.15466630180408134
ababag1
(g2
g3
Ntp1085
Rp1086
(lp1087
g1
(g7
g3
Ntp1088
Rp1089
(lp1090
F2.2560276803728088
aF0.0
aF0.0
abag1
(g7
g3
Ntp1091
Rp1092
(lp1093
F0.0
aF0.0
aF0.14702618447748603
ababag1
(g2
g3
Ntp1094
Rp1095
(lp1096
g1
(g7
g3
Ntp1097
Rp1098
(lp1099
F2.149551911617746
aF0.0
aF0.0
abag1
(g7
g3
Ntp1100
Rp1101
(lp1102
F0.0
aF0.0
aF0.1683988087257606
ababag1
(g2
g3
Ntp1103
Rp1104
(lp1105
g1
(g7
g3
Ntp1106
Rp1107
(lp1108
F2.0662167706447785
aF0.0
aF0.0
abag1
(g7
g3
Ntp1109
Rp1110
(lp1111
F0.0
aF0.0
aF0.12474777471168767
ababag1
(g2
g3
Ntp1112
Rp1113
(lp1114
g1
(g7
g3
Ntp1115
Rp1116
(lp1117
F1.940383907558077
aF0.0
aF0.0
abag1
(g7
g3
Ntp1118
Rp1119
(lp1120
F0.0
aF0.0
aF0.13257896892358204
ababag1
(g2
g3
Ntp1121
Rp1122
(lp1123
g1
(g7
g3
Ntp1124
Rp1125
(lp1126
F1.7855647234919947
aF0.0
aF0.0
abag1
(g7
g3
Ntp1127
Rp1128
(lp1129
F0.0
aF0.0
aF0.08608607424362488
ababag1
(g2
g3
Ntp1130
Rp1131
(lp1132
g1
(g7
g3
Ntp1133
Rp1134
(lp1135
F1.68898740300431
aF0.0
aF0.0
abag1
(g7
g3
Ntp1136
Rp1137
(lp1138
F0.0
aF0.0
aF0.06252509026038014
ababag1
(g2
g3
Ntp1139
Rp1140
(lp1141
g1
(g7
g3
Ntp1142
Rp1143
(lp1144
F1.573896625355936
aF0.0
aF0.0
abag1
(g7
g3
Ntp1145
Rp1146
(lp1147
F0.0
aF0.0
aF0.0481849727193496
ababag1
(g2
g3
Ntp1148
Rp1149
(lp1150
g1
(g7
g3
Ntp1151
Rp1152
(lp1153
F1.4444845410928333
aF0.0
aF0.0
abag1
(g7
g3
Ntp1154
Rp1155
(lp1156
F0.0
aF0.0
aF0.02784953464500535
ababag1
(g2
g3
Ntp1157
Rp1158
(lp1159
g1
(g7
g3
Ntp1160
Rp1161
(lp1162
F1.3383581470706447
aF0.0
aF0.0
abag1
(g7
g3
Ntp1163
Rp1164
(lp1165
F0.0
aF0.0
aF-0.011404889913557452
ababag1
(g2
g3
Ntp1166
Rp1167
(lp1168
g1
(g7
g3
Ntp1169
Rp1170
(lp1171
F1.2388766194005203
aF0.0
aF0.0
abag1
(g7
g3
Ntp1172
Rp1173
(lp1174
F0.0
aF0.0
aF-0.01926434647546481
ababag1
(g2
g3
Ntp1175
Rp1176
(lp1177
g1
(g7
g3
Ntp1178
Rp1179
(lp1180
F1.1314209756613964
aF0.0
aF0.0
abag1
(g7
g3
Ntp1181
Rp1182
(lp1183
F0.0
aF0.0
aF-0.060145039210186754
ababag1
(g2
g3
Ntp1184
Rp1185
(lp1186
g1
(g7
g3
Ntp1187
Rp1188
(lp1189
F1.0228595977742896
aF0.0
aF0.0
abag1
(g7
g3
Ntp1190
Rp1191
(lp1192
F0.0
aF0.0
aF0.04452416329717049
ababag1
(g2
g3
Ntp1193
Rp1194
(lp1195
g1
(g7
g3
Ntp1196
Rp1197
(lp1198
F0.8579020268227605
aF0.0
aF0.0
abag1
(g7
g3
Ntp1199
Rp1200
(lp1201
F0.0
aF0.0
aF-0.03441717045763105
ababag1
(g2
g3
Ntp1202
Rp1203
(lp1204
g1
(g7
g3
Ntp1205
Rp1206
(lp1207
F0.0
aF0.0
aF0.0
abag1
(g7
g3
Ntp1208
Rp1209
(lp1210
F0.0
aF0.0
aF0.0
ababag1
(g2
g3
Ntp1211
Rp1212
(lp1213
g1
(g7
g3
Ntp1214
Rp1215
(lp1216
F0.0
aF0.0
aF0.0
abag1
(g7
g3
Ntp1217
Rp1218
(lp1219
F0.0
aF0.0
aF0.0
ababa.