(lp0
ccopy_reg
_reconstructor
p1
(cgeometry_msgs.msg._Twist
Twist
p2
c__builtin__
object
p3
Ntp4
Rp5
(lp6
g1
(cgeometry_msgs.msg._Vector3
Vector3
p7
g3
Ntp8
Rp9
(lp10
F0.5042070213316395
aF0.0
aF0.0
abag1
(g7
g3
Ntp11
Rp12
(lp13
F0.0
aF0.0
aF-1.299525893506509e-06
ababag1
(g2
g3
Ntp14
Rp15
(lp16
g1
(g7
g3
Ntp17
Rp18
(lp19
F0.6103327305205205
aF0.0
aF0.0
abag1
(g7
g3
Ntp20
Rp21
(lp22
F0.0
aF0.0
aF-2.993638991282376e-05
ababag1
(g2
g3
Ntp23
Rp24
(lp25
g1
(g7
g3
Ntp26
Rp27
(lp28
F0.6140927403564668
aF0.0
aF0.0
abag1
(g7
g3
Ntp29
Rp30
(lp31
F0.0
aF0.0
aF-2.9606956412659408e-05
ababag1
(g2
g3
Ntp32
Rp33
(lp34
g1
(g7
g3
Ntp35
Rp36
(lp37
F0.681519892831316
aF0.0
aF0.0
abag1
(g7
g3
Ntp38
Rp39
(lp40
F0.0
aF0.0
aF-4.9338600408823056e-05
ababag1
(g2
g3
Ntp41
Rp42
(lp43
g1
(g7
g3
Ntp44
Rp45
(lp46
F0.8339860182982946
aF0.0
aF0.0
abag1
(g7
g3
Ntp47
Rp48
(lp49
F0.0
aF0.0
aF-1.0271737853590044e-05
ababag1
(g2
g3
Ntp50
Rp51
(lp52
g1
(g7
g3
Ntp53
Rp54
(lp55
F0.9970867394967423
aF0.0
aF0.0
abag1
(g7
g3
Ntp56
Rp57
(lp58
F0.0
aF0.0
aF-2.510623965694559e-06
ababag1
(g2
g3
Ntp59
Rp60
(lp61
g1
(g7
g3
Ntp62
Rp63
(lp64
F1.236182712348118
aF0.0
aF0.0
abag1
(g7
g3
Ntp65
Rp66
(lp67
F0.0
aF0.0
aF-1.9620692442282953e-06
ababag1
(g2
g3
Ntp68
Rp69
(lp70
g1
(g7
g3
Ntp71
Rp72
(lp73
F1.4141784131134865
aF0.0
aF0.0
abag1
(g7
g3
Ntp74
Rp75
(lp76
F0.0
aF0.0
aF-2.13068225075185e-06
ababag1
(g2
g3
Ntp77
Rp78
(lp79
g1
(g7
g3
Ntp80
Rp81
(lp82
F1.592317077081555
aF0.0
aF0.0
abag1
(g7
g3
Ntp83
Rp84
(lp85
F0.0
aF0.0
aF-3.221169601220486e-06
ababag1
(g2
g3
Ntp86
Rp87
(lp88
g1
(g7
g3
Ntp89
Rp90
(lp91
F1.7429180494221153
aF0.0
aF0.0
abag1
(g7
g3
Ntp92
Rp93
(lp94
F0.0
aF0.0
aF-4.559018186587856e-06
ababag1
(g2
g3
Ntp95
Rp96
(lp97
g1
(g7
g3
Ntp98
Rp99
(lp100
F1.8997191949816714
aF0.0
aF0.0
abag1
(g7
g3
Ntp101
Rp102
(lp103
F0.0
aF0.0
aF-2.4827346483415515e-06
ababag1
(g2
g3
Ntp104
Rp105
(lp106
g1
(g7
g3
Ntp107
Rp108
(lp109
F2.0708224459301
aF0.0
aF0.0
abag1
(g7
g3
Ntp110
Rp111
(lp112
F0.0
aF0.0
aF-6.455280622607088e-07
ababag1
(g2
g3
Ntp113
Rp114
(lp115
g1
(g7
g3
Ntp116
Rp117
(lp118
F2.2423269764678007
aF0.0
aF0.0
abag1
(g7
g3
Ntp119
Rp120
(lp121
F0.0
aF0.0
aF-1.159003935439451e-06
ababag1
(g2
g3
Ntp122
Rp123
(lp124
g1
(g7
g3
Ntp125
Rp126
(lp127
F2.403181224296873
aF0.0
aF0.0
abag1
(g7
g3
Ntp128
Rp129
(lp130
F0.0
aF0.0
aF-2.99000005284977e-07
ababag1
(g2
g3
Ntp131
Rp132
(lp133
g1
(g7
g3
Ntp134
Rp135
(lp136
F2.552825126960097
aF0.0
aF0.0
abag1
(g7
g3
Ntp137
Rp138
(lp139
F0.0
aF0.0
aF1.3943351789070075e-07
ababag1
(g2
g3
Ntp140
Rp141
(lp142
g1
(g7
g3
Ntp143
Rp144
(lp145
F2.716074639162006
aF0.0
aF0.0
abag1
(g7
g3
Ntp146
Rp147
(lp148
F0.0
aF0.0
aF-5.891112277697414e-07
ababag1
(g2
g3
Ntp149
Rp150
(lp151
g1
(g7
g3
Ntp152
Rp153
(lp154
F2.712237752555309
aF0.0
aF0.0
abag1
(g7
g3
Ntp155
Rp156
(lp157
F0.0
aF0.0
aF-3.2162023278803394e-06
ababag1
(g2
g3
Ntp158
Rp159
(lp160
g1
(g7
g3
Ntp161
Rp162
(lp163
F2.720126596048471
aF0.0
aF0.0
abag1
(g7
g3
Ntp164
Rp165
(lp166
F0.0
aF0.0
aF-6.16550075631731e-06
ababag1
(g2
g3
Ntp167
Rp168
(lp169
g1
(g7
g3
Ntp170
Rp171
(lp172
F2.7231012983738236
aF0.0
aF0.0
abag1
(g7
g3
Ntp173
Rp174
(lp175
F0.0
aF0.0
aF-1.0053927244218336e-05
ababag1
(g2
g3
Ntp176
Rp177
(lp178
g1
(g7
g3
Ntp179
Rp180
(lp181
F2.722630555954267
aF0.0
aF0.0
abag1
(g7
g3
Ntp182
Rp183
(lp184
F0.0
aF0.0
aF-2.0097388659425818e-05
ababag1
(g2
g3
Ntp185
Rp186
(lp187
g1
(g7
g3
Ntp188
Rp189
(lp190
F2.72237933707804
aF0.0
aF0.0
abag1
(g7
g3
Ntp191
Rp192
(lp193
F0.0
aF0.0
aF-3.70955307379743e-05
ababag1
(g2
g3
Ntp194
Rp195
(lp196
g1
(g7
g3
Ntp197
Rp198
(lp199
F2.7256615886733218
aF0.0
aF0.0
abag1
(g7
g3
Ntp200
Rp201
(lp202
F0.0
aF0.0
aF-6.72103267820665e-05
ababag1
(g2
g3
Ntp203
Rp204
(lp205
g1
(g7
g3
Ntp206
Rp207
(lp208
F2.7289594088825977
aF0.0
aF0.0
abag1
(g7
g3
Ntp209
Rp210
(lp211
F0.0
aF0.0
aF-0.000115764232122568
ababag1
(g2
g3
Ntp212
Rp213
(lp214
g1
(g7
g3
Ntp215
Rp216
(lp217
F2.721885168198709
aF0.0
aF0.0
abag1
(g7
g3
Ntp218
Rp219
(lp220
F0.0
aF0.0
aF-0.0001984335142914947
ababag1
(g2
g3
Ntp221
Rp222
(lp223
g1
(g7
g3
Ntp224
Rp225
(lp226
F2.7208564660953534
aF0.0
aF0.0
abag1
(g7
g3
Ntp227
Rp228
(lp229
F0.0
aF0.0
aF-0.00031552951079450125
ababag1
(g2
g3
Ntp230
Rp231
(lp232
g1
(g7
g3
Ntp233
Rp234
(lp235
F2.722750208249195
aF0.0
aF0.0
abag1
(g7
g3
Ntp236
Rp237
(lp238
F0.0
aF0.0
aF-0.0005461572770755089
ababag1
(g2
g3
Ntp239
Rp240
(lp241
g1
(g7
g3
Ntp242
Rp243
(lp244
F2.7249845128846424
aF0.0
aF0.0
abag1
(g7
g3
Ntp245
Rp246
(lp247
F0.0
aF0.0
aF-0.0008766354478100014
ababag1
(g2
g3
Ntp248
Rp249
(lp250
g1
(g7
g3
Ntp251
Rp252
(lp253
F2.7236011305955152
aF0.0
aF0.0
abag1
(g7
g3
Ntp254
Rp255
(lp256
F0.0
aF0.0
aF-0.0014673376378600072
ababag1
(g2
g3
Ntp257
Rp258
(lp259
g1
(g7
g3
Ntp260
Rp261
(lp262
F2.720995815387572
aF0.0
aF0.0
abag1
(g7
g3
Ntp263
Rp264
(lp265
F0.0
aF0.0
aF-0.0023716078894051723
ababag1
(g2
g3
Ntp266
Rp267
(lp268
g1
(g7
g3
Ntp269
Rp270
(lp271
F2.7202800766718185
aF0.0
aF0.0
abag1
(g7
g3
Ntp272
Rp273
(lp274
F0.0
aF0.0
aF-0.003942565798738063
ababag1
(g2
g3
Ntp275
Rp276
(lp277
g1
(g7
g3
Ntp278
Rp279
(lp280
F2.7236589709673
aF0.0
aF0.0
abag1
(g7
g3
Ntp281
Rp282
(lp283
F0.0
aF0.0
aF-0.006064599445387723
ababag1
(g2
g3
Ntp284
Rp285
(lp286
g1
(g7
g3
Ntp287
Rp288
(lp289
F2.7251046851166008
aF0.0
aF0.0
abag1
(g7
g3
Ntp290
Rp291
(lp292
F0.0
aF0.0
aF-0.004826535504951808
ababag1
(g2
g3
Ntp293
Rp294
(lp295
g1
(g7
g3
Ntp296
Rp297
(lp298
F2.728260190212401
aF0.0
aF0.0
abag1
(g7
g3
Ntp299
Rp300
(lp301
F0.0
aF0.0
aF-0.036139960854281346
ababag1
(g2
g3
Ntp302
Rp303
(lp304
g1
(g7
g3
Ntp305
Rp306
(lp307
F2.729775509865497
aF0.0
aF0.0
abag1
(g7
g3
Ntp308
Rp309
(lp310
F0.0
aF0.0
aF-0.05912812736442172
ababag1
(g2
g3
Ntp311
Rp312
(lp313
g1
(g7
g3
Ntp314
Rp315
(lp316
F2.7228754373337147
aF0.0
aF0.0
abag1
(g7
g3
Ntp317
Rp318
(lp319
F0.0
aF0.0
aF-0.03371461743871806
ababag1
(g2
g3
Ntp320
Rp321
(lp322
g1
(g7
g3
Ntp323
Rp324
(lp325
F2.720653005475714
aF0.0
aF0.0
abag1
(g7
g3
Ntp326
Rp327
(lp328
F0.0
aF0.0
aF0.005711671328110884
ababag1
(g2
g3
Ntp329
Rp330
(lp331
g1
(g7
g3
Ntp332
Rp333
(lp334
F2.720077410656085
aF0.0
aF0.0
abag1
(g7
g3
Ntp335
Rp336
(lp337
F0.0
aF0.0
aF0.0606504212739586
ababag1
(g2
g3
Ntp338
Rp339
(lp340
g1
(g7
g3
Ntp341
Rp342
(lp343
F2.719546010956468
aF0.0
aF0.0
abag1
(g7
g3
Ntp344
Rp345
(lp346
F0.0
aF0.0
aF0.11058909611848822
ababag1
(g2
g3
Ntp347
Rp348
(lp349
g1
(g7
g3
Ntp350
Rp351
(lp352
F2.719194166368179
aF0.0
aF0.0
abag1
(g7
g3
Ntp353
Rp354
(lp355
F0.0
aF0.0
aF0.12633971310371409
ababag1
(g2
g3
Ntp356
Rp357
(lp358
g1
(g7
g3
Ntp359
Rp360
(lp361
F2.719132794877719
aF0.0
aF0.0
abag1
(g7
g3
Ntp362
Rp363
(lp364
F0.0
aF0.0
aF0.13589018396266056
ababag1
(g2
g3
Ntp365
Rp366
(lp367
g1
(g7
g3
Ntp368
Rp369
(lp370
F2.7164159565464754
aF0.0
aF0.0
abag1
(g7
g3
Ntp371
Rp372
(lp373
F0.0
aF0.0
aF0.14863260297088274
ababag1
(g2
g3
Ntp374
Rp375
(lp376
g1
(g7
g3
Ntp377
Rp378
(lp379
F2.667759463618552
aF0.0
aF0.0
abag1
(g7
g3
Ntp380
Rp381
(lp382
F0.0
aF0.0
aF0.17926321409599613
ababag1
(g2
g3
Ntp383
Rp384
(lp385
g1
(g7
g3
Ntp386
Rp387
(lp388
F2.7200639682948173
aF0.0
aF0.0
abag1
(g7
g3
Ntp389
Rp390
(lp391
F0.0
aF0.0
aF0.1519585375875849
ababag1
(g2
g3
Ntp392
Rp393
(lp394
g1
(g7
g3
Ntp395
Rp396
(lp397
F2.642869158216075
aF0.0
aF0.0
abag1
(g7
g3
Ntp398
Rp399
(lp400
F0.0
aF0.0
aF0.15810358266378824
ababag1
(g2
g3
Ntp401
Rp402
(lp403
g1
(g7
g3
Ntp404
Rp405
(lp406
F2.6498536107031745
aF0.0
aF0.0
abag1
(g7
g3
Ntp407
Rp408
(lp409
F0.0
aF0.0
aF0.1104582951153761
ababag1
(g2
g3
Ntp410
Rp411
(lp412
g1
(g7
g3
Ntp413
Rp414
(lp415
F2.583617815579269
aF0.0
aF0.0
abag1
(g7
g3
Ntp416
Rp417
(lp418
F0.0
aF0.0
aF0.17358328700592568
ababag1
(g2
g3
Ntp419
Rp420
(lp421
g1
(g7
g3
Ntp422
Rp423
(lp424
F2.715559967979882
aF0.0
aF0.0
abag1
(g7
g3
Ntp425
Rp426
(lp427
F0.0
aF0.0
aF0.17617478886072577
ababag1
(g2
g3
Ntp428
Rp429
(lp430
g1
(g7
g3
Ntp431
Rp432
(lp433
F2.724031165788494
aF0.0
aF0.0
abag1
(g7
g3
Ntp434
Rp435
(lp436
F0.0
aF0.0
aF0.14501717103774647
ababag1
(g2
g3
Ntp437
Rp438
(lp439
g1
(g7
g3
Ntp440
Rp441
(lp442
F2.725710000656077
aF0.0
aF0.0
abag1
(g7
g3
Ntp443
Rp444
(lp445
F0.0
aF0.0
aF0.1333497916771491
ababag1
(g2
g3
Ntp446
Rp447
(lp448
g1
(g7
g3
Ntp449
Rp450
(lp451
F2.7515634198666232
aF0.0
aF0.0
abag1
(g7
g3
Ntp452
Rp453
(lp454
F0.0
aF0.0
aF0.09620831338579287
ababag1
(g2
g3
Ntp455
Rp456
(lp457
g1
(g7
g3
Ntp458
Rp459
(lp460
F2.725491102868905
aF0.0
aF0.0
abag1
(g7
g3
Ntp461
Rp462
(lp463
F0.0
aF0.0
aF0.055489670531474
ababag1
(g2
g3
Ntp464
Rp465
(lp466
g1
(g7
g3
Ntp467
Rp468
(lp469
F2.728671000709602
aF0.0
aF0.0
abag1
(g7
g3
Ntp470
Rp471
(lp472
F0.0
aF0.0
aF0.04967581487173974
ababag1
(g2
g3
Ntp473
Rp474
(lp475
g1
(g7
g3
Ntp476
Rp477
(lp478
F2.7309048400173355
aF0.0
aF0.0
abag1
(g7
g3
Ntp479
Rp480
(lp481
F0.0
aF0.0
aF0.011315868226513015
ababag1
(g2
g3
Ntp482
Rp483
(lp484
g1
(g7
g3
Ntp485
Rp486
(lp487
F2.7227870921649915
aF0.0
aF0.0
abag1
(g7
g3
Ntp488
Rp489
(lp490
F0.0
aF0.0
aF-0.09367601902925816
ababag1
(g2
g3
Ntp491
Rp492
(lp493
g1
(g7
g3
Ntp494
Rp495
(lp496
F2.7238769764277753
aF0.0
aF0.0
abag1
(g7
g3
Ntp497
Rp498
(lp499
F0.0
aF0.0
aF-0.11849153193465833
ababag1
(g2
g3
Ntp500
Rp501
(lp502
g1
(g7
g3
Ntp503
Rp504
(lp505
F2.7258419076812364
aF0.0
aF0.0
abag1
(g7
g3
Ntp506
Rp507
(lp508
F0.0
aF0.0
aF-0.12611859040375534
ababag1
(g2
g3
Ntp509
Rp510
(lp511
g1
(g7
g3
Ntp512
Rp513
(lp514
F2.6865493158661202
aF0.0
aF0.0
abag1
(g7
g3
Ntp515
Rp516
(lp517
F0.0
aF0.0
aF-0.11620722912705468
ababag1
(g2
g3
Ntp518
Rp519
(lp520
g1
(g7
g3
Ntp521
Rp522
(lp523
F2.6503867982906235
aF0.0
aF0.0
abag1
(g7
g3
Ntp524
Rp525
(lp526
F0.0
aF0.0
aF-0.11055482588396286
ababag1
(g2
g3
Ntp527
Rp528
(lp529
g1
(g7
g3
Ntp530
Rp531
(lp532
F2.6097628813749605
aF0.0
aF0.0
abag1
(g7
g3
Ntp533
Rp534
(lp535
F0.0
aF0.0
aF-0.11974127370459925
ababag1
(g2
g3
Ntp536
Rp537
(lp538
g1
(g7
g3
Ntp539
Rp540
(lp541
F2.6841582419112338
aF0.0
aF0.0
abag1
(g7
g3
Ntp542
Rp543
(lp544
F0.0
aF0.0
aF-0.11010627432519282
ababag1
(g2
g3
Ntp545
Rp546
(lp547
g1
(g7
g3
Ntp548
Rp549
(lp550
F2.6941986928853225
aF0.0
aF0.0
abag1
(g7
g3
Ntp551
Rp552
(lp553
F0.0
aF0.0
aF-0.15018715748409442
ababag1
(g2
g3
Ntp554
Rp555
(lp556
g1
(g7
g3
Ntp557
Rp558
(lp559
F2.7121754628532675
aF0.0
aF0.0
abag1
(g7
g3
Ntp560
Rp561
(lp562
F0.0
aF0.0
aF-0.10371561089382751
ababag1
(g2
g3
Ntp563
Rp564
(lp565
g1
(g7
g3
Ntp566
Rp567
(lp568
F2.6773045654373333
aF0.0
aF0.0
abag1
(g7
g3
Ntp569
Rp570
(lp571
F0.0
aF0.0
aF-0.17786924760552913
ababag1
(g2
g3
Ntp572
Rp573
(lp574
g1
(g7
g3
Ntp575
Rp576
(lp577
F2.726950244125719
aF0.0
aF0.0
abag1
(g7
g3
Ntp578
Rp579
(lp580
F0.0
aF0.0
aF-0.13946368116146415
ababag1
(g2
g3
Ntp581
Rp582
(lp583
g1
(g7
g3
Ntp584
Rp585
(lp586
F2.672360926795966
aF0.0
aF0.0
abag1
(g7
g3
Ntp587
Rp588
(lp589
F0.0
aF0.0
aF-0.13654089714397016
ababag1
(g2
g3
Ntp590
Rp591
(lp592
g1
(g7
g3
Ntp593
Rp594
(lp595
F2.7044127285173523
aF0.0
aF0.0
abag1
(g7
g3
Ntp596
Rp597
(lp598
F0.0
aF0.0
aF-0.1403967225180795
ababag1
(g2
g3
Ntp599
Rp600
(lp601
g1
(g7
g3
Ntp602
Rp603
(lp604
F2.7130997200279845
aF0.0
aF0.0
abag1
(g7
g3
Ntp605
Rp606
(lp607
F0.0
aF0.0
aF-0.11138534712004199
ababag1
(g2
g3
Ntp608
Rp609
(lp610
g1
(g7
g3
Ntp611
Rp612
(lp613
F2.732710455624863
aF0.0
aF0.0
abag1
(g7
g3
Ntp614
Rp615
(lp616
F0.0
aF0.0
aF-0.1077493631092334
ababag1
(g2
g3
Ntp617
Rp618
(lp619
g1
(g7
g3
Ntp620
Rp621
(lp622
F2.7155016120599655
aF0.0
aF0.0
abag1
(g7
g3
Ntp623
Rp624
(lp625
F0.0
aF0.0
aF-0.10905253321676697
ababag1
(g2
g3
Ntp626
Rp627
(lp628
g1
(g7
g3
Ntp629
Rp630
(lp631
F2.700149034889232
aF0.0
aF0.0
abag1
(g7
g3
Ntp632
Rp633
(lp634
F0.0
aF0.0
aF-0.10015322268734603
ababag1
(g2
g3
Ntp635
Rp636
(lp637
g1
(g7
g3
Ntp638
Rp639
(lp640
F2.7490898820506215
aF0.0
aF0.0
abag1
(g7
g3
Ntp641
Rp642
(lp643
F0.0
aF0.0
aF-0.08777810110805873
ababag1
(g2
g3
Ntp644
Rp645
(lp646
g1
(g7
g3
Ntp647
Rp648
(lp649
F2.7302226321900727
aF0.0
aF0.0
abag1
(g7
g3
Ntp650
Rp651
(lp652
F0.0
aF0.0
aF-0.10355594394515147
ababag1
(g2
g3
Ntp653
Rp654
(lp655
g1
(g7
g3
Ntp656
Rp657
(lp658
F2.7247704712198764
aF0.0
aF0.0
abag1
(g7
g3
Ntp659
Rp660
(lp661
F0.0
aF0.0
aF-0.07303461238592529
ababag1
(g2
g3
Ntp662
Rp663
(lp664
g1
(g7
g3
Ntp665
Rp666
(lp667
F2.7566785117011876
aF0.0
aF0.0
abag1
(g7
g3
Ntp668
Rp669
(lp670
F0.0
aF0.0
aF-0.03210256459423698
ababag1
(g2
g3
Ntp671
Rp672
(lp673
g1
(g7
g3
Ntp674
Rp675
(lp676
F2.757439177703805
aF0.0
aF0.0
abag1
(g7
g3
Ntp677
Rp678
(lp679
F0.0
aF0.0
aF0.008201425404291437
ababag1
(g2
g3
Ntp680
Rp681
(lp682
g1
(g7
g3
Ntp683
Rp684
(lp685
F2.726052974399708
aF0.0
aF0.0
abag1
(g7
g3
Ntp686
Rp687
(lp688
F0.0
aF0.0
aF0.08403534975247129
ababag1
(g2
g3
Ntp689
Rp690
(lp691
g1
(g7
g3
Ntp692
Rp693
(lp694
F2.7274137351849324
aF0.0
aF0.0
abag1
(g7
g3
Ntp695
Rp696
(lp697
F0.0
aF0.0
aF0.10893166500069675
ababag1
(g2
g3
Ntp698
Rp699
(lp700
g1
(g7
g3
Ntp701
Rp702
(lp703
F2.7456138909981753
aF0.0
aF0.0
abag1
(g7
g3
Ntp704
Rp705
(lp706
F0.0
aF0.0
aF0.09331302874114471
ababag1
(g2
g3
Ntp707
Rp708
(lp709
g1
(g7
g3
Ntp710
Rp711
(lp712
F2.728529837935806
aF0.0
aF0.0
abag1
(g7
g3
Ntp713
Rp714
(lp715
F0.0
aF0.0
aF0.10870415418542606
ababag1
(g2
g3
Ntp716
Rp717
(lp718
g1
(g7
g3
Ntp719
Rp720
(lp721
F2.729262600727025
aF0.0
aF0.0
abag1
(g7
g3
Ntp722
Rp723
(lp724
F0.0
aF0.0
aF0.11363303893764165
ababag1
(g2
g3
Ntp725
Rp726
(lp727
g1
(g7
g3
Ntp728
Rp729
(lp730
F2.7379633326661716
aF0.0
aF0.0
abag1
(g7
g3
Ntp731
Rp732
(lp733
F0.0
aF0.0
aF0.09109408177223677
ababag1
(g2
g3
Ntp734
Rp735
(lp736
g1
(g7
g3
Ntp737
Rp738
(lp739
F2.717610280159306
aF0.0
aF0.0
abag1
(g7
g3
Ntp740
Rp741
(lp742
F0.0
aF0.0
aF0.16545786671576898
ababag1
(g2
g3
Ntp743
Rp744
(lp745
g1
(g7
g3
Ntp746
Rp747
(lp748
F2.6573131273395325
aF0.0
aF0.0
abag1
(g7
g3
Ntp749
Rp750
(lp751
F0.0
aF0.0
aF0.1448678043369407
ababag1
(g2
g3
Ntp752
Rp753
(lp754
g1
(g7
g3
Ntp755
Rp756
(lp757
F2.592174745783778
aF0.0
aF0.0
abag1
(g7
g3
Ntp758
Rp759
(lp760
F0.0
aF0.0
aF0.1711180168226168
ababag1
(g2
g3
Ntp761
Rp762
(lp763
g1
(g7
g3
Ntp764
Rp765
(lp766
F2.5075225571047457
aF0.0
aF0.0
abag1
(g7
g3
Ntp767
Rp768
(lp769
F0.0
aF0.0
aF0.18337105234118165
ababag1
(g2
g3
Ntp770
Rp771
(lp772
g1
(g7
g3
Ntp773
Rp774
(lp775
F2.5034977098880176
aF0.0
aF0.0
abag1
(g7
g3
Ntp776
Rp777
(lp778
F0.0
aF0.0
aF0.16701114579187412
ababag1
(g2
g3
Ntp779
Rp780
(lp781
g1
(g7
g3
Ntp782
Rp783
(lp784
F2.312162254739699
aF0.0
aF0.0
abag1
(g7
g3
Ntp785
Rp786
(lp787
F0.0
aF0.0
aF0.3104291683114325
ababag1
(g2
g3
Ntp788
Rp789
(lp790
g1
(g7
g3
Ntp791
Rp792
(lp793
F2.2719101265492334
aF0.0
aF0.0
abag1
(g7
g3
Ntp794
Rp795
(lp796
F0.0
aF0.0
aF0.2015754526997936
ababag1
(g2
g3
Ntp797
Rp798
(lp799
g1
(g7
g3
Ntp800
Rp801
(lp802
F2.2108163768400386
aF0.0
aF0.0
abag1
(g7
g3
Ntp803
Rp804
(lp805
F0.0
aF0.0
aF0.21800224438277213
ababag1
(g2
g3
Ntp806
Rp807
(lp808
g1
(g7
g3
Ntp809
Rp810
(lp811
F2.073165790717033
aF0.0
aF0.0
abag1
(g7
g3
Ntp812
Rp813
(lp814
F0.0
aF0.0
aF0.2702193647757573
ababag1
(g2
g3
Ntp815
Rp816
(lp817
g1
(g7
g3
Ntp818
Rp819
(lp820
F1.915680299189072
aF0.0
aF0.0
abag1
(g7
g3
Ntp821
Rp822
(lp823
F0.0
aF0.0
aF0.27780552738321634
ababag1
(g2
g3
Ntp824
Rp825
(lp826
g1
(g7
g3
Ntp827
Rp828
(lp829
F1.797137788750897
aF0.0
aF0.0
abag1
(g7
g3
Ntp830
Rp831
(lp832
F0.0
aF0.0
aF0.23638020594775644
ababag1
(g2
g3
Ntp833
Rp834
(lp835
g1
(g7
g3
Ntp836
Rp837
(lp838
F1.7220241924748043
aF0.0
aF0.0
abag1
(g7
g3
Ntp839
Rp840
(lp841
F0.0
aF0.0
aF0.22193135015558604
ababag1
(g2
g3
Ntp842
Rp843
(lp844
g1
(g7
g3
Ntp845
Rp846
(lp847
F1.590769135632286
aF0.0
aF0.0
abag1
(g7
g3
Ntp848
Rp849
(lp850
F0.0
aF0.0
aF0.25643590881823436
ababag1
(g2
g3
Ntp851
Rp852
(lp853
g1
(g7
g3
Ntp854
Rp855
(lp856
F1.4287766909546356
aF0.0
aF0.0
abag1
(g7
g3
Ntp857
Rp858
(lp859
F0.0
aF0.0
aF0.22532439364800583
ababag1
(g2
g3
Ntp860
Rp861
(lp862
g1
(g7
g3
Ntp863
Rp864
(lp865
F1.3022534587174572
aF0.0
aF0.0
abag1
(g7
g3
Ntp866
Rp867
(lp868
F0.0
aF0.0
aF0.18836583716900482
ababag1
(g2
g3
Ntp869
Rp870
(lp871
g1
(g7
g3
Ntp872
Rp873
(lp874
F1.17186738391061
aF0.0
aF0.0
abag1
(g7
g3
Ntp875
Rp876
(lp877
F0.0
aF0.0
aF0.20355379256961176
ababag1
(g2
g3
Ntp878
Rp879
(lp880
g1
(g7
g3
Ntp881
Rp882
(lp883
F1.0243274334035952
aF0.0
aF0.0
abag1
(g7
g3
Ntp884
Rp885
(lp886
F0.0
aF0.0
aF0.21337233072816564
ababag1
(g2
g3
Ntp887
Rp888
(lp889
g1
(g7
g3
Ntp890
Rp891
(lp892
F0.88311773974782
aF0.0
aF0.0
abag1
(g7
g3
Ntp893
Rp894
(lp895
F0.0
aF0.0
aF0.19828079815461017
ababag1
(g2
g3
Ntp896
Rp897
(lp898
g1
(g7
g3
Ntp899
Rp900
(lp901
F0.8469511092385413
aF0.0
aF0.0
abag1
(g7
g3
Ntp902
Rp903
(lp904
F0.0
aF0.0
aF0.21361099450422097
ababag1
(g2
g3
Ntp905
Rp906
(lp907
g1
(g7
g3
Ntp908
Rp909
(lp910
F0.7882444838687178
aF0.0
aF0.0
abag1
(g7
g3
Ntp911
Rp912
(lp913
F0.0
aF0.0
aF0.13750371936787842
ababag1
(g2
g3
Ntp914
Rp915
(lp916
g1
(g7
g3
Ntp917
Rp918
(lp919
F0.7332840931087096
aF0.0
aF0.0
abag1
(g7
g3
Ntp920
Rp921
(lp922
F0.0
aF0.0
aF0.1503894295049689
ababag1
(g2
g3
Ntp923
Rp924
(lp925
g1
(g7
g3
Ntp926
Rp927
(lp928
F0.8198879383421336
aF0.0
aF0.0
abag1
(g7
g3
Ntp929
Rp930
(lp931
F0.0
aF0.0
aF0.16138226988618315
ababag1
(g2
g3
Ntp932
Rp933
(lp934
g1
(g7
g3
Ntp935
Rp936
(lp937
F0.8105713916978843
aF0.0
aF0.0
abag1
(g7
g3
Ntp938
Rp939
(lp940
F0.0
aF0.0
aF0.13710495834566291
ababag1
(g2
g3
Ntp941
Rp942
(lp943
g1
(g7
g3
Ntp944
Rp945
(lp946
F0.8980176680453575
aF0.0
aF0.0
abag1
(g7
g3
Ntp947
Rp948
(lp949
F0.0
aF0.0
aF0.21718275760183944
ababag1
(g2
g3
Ntp950
Rp951
(lp952
g1
(g7
g3
Ntp953
Rp954
(lp955
F0.8988252209546248
aF0.0
aF0.0
abag1
(g7
g3
Ntp956
Rp957
(lp958
F0.0
aF0.0
aF0.1870246131897907
ababag1
(g2
g3
Ntp959
Rp960
(lp961
g1
(g7
g3
Ntp962
Rp963
(lp964
F0.8662035426294113
aF0.0
aF0.0
abag1
(g7
g3
Ntp965
Rp966
(lp967
F0.0
aF0.0
aF0.21154232690350303
ababag1
(g2
g3
Ntp968
Rp969
(lp970
g1
(g7
g3
Ntp971
Rp972
(lp973
F0.8977612112782634
aF0.0
aF0.0
abag1
(g7
g3
Ntp974
Rp975
(lp976
F0.0
aF0.0
aF0.20601853111616336
ababag1
(g2
g3
Ntp977
Rp978
(lp979
g1
(g7
g3
Ntp980
Rp981
(lp982
F0.8802227703862371
aF0.0
aF0.0
abag1
(g7
g3
Ntp983
Rp984
(lp985
F0.0
aF0.0
aF0.16858227753295407
ababag1
(g2
g3
Ntp986
Rp987
(lp988
g1
(g7
g3
Ntp989
Rp990
(lp991
F0.9144547339585267
aF0.0
aF0.0
abag1
(g7
g3
Ntp992
Rp993
(lp994
F0.0
aF0.0
aF0.170137611373274
ababag1
(g2
g3
Ntp995
Rp996
(lp997
g1
(g7
g3
Ntp998
Rp999
(lp1000
F0.960388834389649
aF0.0
aF0.0
abag1
(g7
g3
Ntp1001
Rp1002
(lp1003
F0.0
aF0.0
aF0.12382154892063653
ababag1
(g2
g3
Ntp1004
Rp1005
(lp1006
g1
(g7
g3
Ntp1007
Rp1008
(lp1009
F1.0099931952588361
aF0.0
aF0.0
abag1
(g7
g3
Ntp1010
Rp1011
(lp1012
F0.0
aF0.0
aF0.12230352570938992
ababag1
(g2
g3
Ntp1013
Rp1014
(lp1015
g1
(g7
g3
Ntp1016
Rp1017
(lp1018
F1.0588611000582375
aF0.0
aF0.0
abag1
(g7
g3
Ntp1019
Rp1020
(lp1021
F0.0
aF0.0
aF0.1298177074422135
ababag1
(g2
g3
Ntp1022
Rp1023
(lp1024
g1
(g7
g3
Ntp1025
Rp1026
(lp1027
F1.1043326488595768
aF0.0
aF0.0
abag1
(g7
g3
Ntp1028
Rp1029
(lp1030
F0.0
aF0.0
aF0.13513590016571195
ababag1
(g2
g3
Ntp1031
Rp1032
(lp1033
g1
(g7
g3
Ntp1034
Rp1035
(lp1036
F1.1301781896552066
aF0.0
aF0.0
abag1
(g7
g3
Ntp1037
Rp1038
(lp1039
F0.0
aF0.0
aF0.13363213315873548
ababag1
(g2
g3
Ntp1040
Rp1041
(lp1042
g1
(g7
g3
Ntp1043
Rp1044
(lp1045
F1.1557500371037872
aF0.0
aF0.0
abag1
(g7
g3
Ntp1046
Rp1047
(lp1048
F0.0
aF0.0
aF0.1326334694873443
ababag1
(g2
g3
Ntp1049
Rp1050
(lp1051
g1
(g7
g3
Ntp1052
Rp1053
(lp1054
F1.150014564127175
aF0.0
aF0.0
abag1
(g7
g3
Ntp1055
Rp1056
(lp1057
F0.0
aF0.0
aF0.09810265402425386
ababag1
(g2
g3
Ntp1058
Rp1059
(lp1060
g1
(g7
g3
Ntp1061
Rp1062
(lp1063
F1.1700776629693228
aF0.0
aF0.0
abag1
(g7
g3
Ntp1064
Rp1065
(lp1066
F0.0
aF0.0
aF0.10058475306669296
ababag1
(g2
g3
Ntp1067
Rp1068
(lp1069
g1
(g7
g3
Ntp1070
Rp1071
(lp1072
F1.1730972875573105
aF0.0
aF0.0
abag1
(g7
g3
Ntp1073
Rp1074
(lp1075
F0.0
aF0.0
aF0.09996472522942111
ababag1
(g2
g3
Ntp1076
Rp1077
(lp1078
g1
(g7
g3
Ntp1079
Rp1080
(lp1081
F1.1738596081126154
aF0.0
aF0.0
abag1
(g7
g3
Ntp1082
Rp1083
(lp1084
F0.0
aF0.0
aF0.098653740273471
ababag1
(g2
g3
Ntp1085
Rp1086
(lp1087
g1
(g7
g3
Ntp1088
Rp1089
(lp1090
F1.1851091269550789
aF0.0
aF0.0
abag1
(g7
g3
Ntp1091
Rp1092
(lp1093
F0.0
aF0.0
aF0.07344697633918323
ababag1
(g2
g3
Ntp1094
Rp1095
(lp1096
g1
(g7
g3
Ntp1097
Rp1098
(lp1099
F1.1951639671665795
aF0.0
aF0.0
abag1
(g7
g3
Ntp1100
Rp1101
(lp1102
F0.0
aF0.0
aF0.054482509810051045
ababag1
(g2
g3
Ntp1103
Rp1104
(lp1105
g1
(g7
g3
Ntp1106
Rp1107
(lp1108
F1.2002286406130598
aF0.0
aF0.0
abag1
(g7
g3
Ntp1109
Rp1110
(lp1111
F0.0
aF0.0
aF-0.026674834911019234
ababag1
(g2
g3
Ntp1112
Rp1113
(lp1114
g1
(g7
g3
Ntp1115
Rp1116
(lp1117
F1.210455524905146
aF0.0
aF0.0
abag1
(g7
g3
Ntp1118
Rp1119
(lp1120
F0.0
aF0.0
aF-0.05796824910484032
ababag1
(g2
g3
Ntp1121
Rp1122
(lp1123
g1
(g7
g3
Ntp1124
Rp1125
(lp1126
F1.2225721521122657
aF0.0
aF0.0
abag1
(g7
g3
Ntp1127
Rp1128
(lp1129
F0.0
aF0.0
aF-0.06712662137139681
ababag1
(g2
g3
Ntp1130
Rp1131
(lp1132
g1
(g7
g3
Ntp1133
Rp1134
(lp1135
F1.2571410450416027
aF0.0
aF0.0
abag1
(g7
g3
Ntp1136
Rp1137
(lp1138
F0.0
aF0.0
aF-0.10328928129526387
ababag1
(g2
g3
Ntp1139
Rp1140
(lp1141
g1
(g7
g3
Ntp1142
Rp1143
(lp1144
F1.2947816150379576
aF0.0
aF0.0
abag1
(g7
g3
Ntp1145
Rp1146
(lp1147
F0.0
aF0.0
aF-0.07520425887734569
ababag1
(g2
g3
Ntp1148
Rp1149
(lp1150
g1
(g7
g3
Ntp1151
Rp1152
(lp1153
F1.3363760319571283
aF0.0
aF0.0
abag1
(g7
g3
Ntp1154
Rp1155
(lp1156
F0.0
aF0.0
aF-0.052968199353882424
ababag1
(g2
g3
Ntp1157
Rp1158
(lp1159
g1
(g7
g3
Ntp1160
Rp1161
(lp1162
F1.3435051674066112
aF0.0
aF0.0
abag1
(g7
g3
Ntp1163
Rp1164
(lp1165
F0.0
aF0.0
aF-0.0661484494806863
ababag1
(g2
g3
Ntp1166
Rp1167
(lp1168
g1
(g7
g3
Ntp1169
Rp1170
(lp1171
F1.4155948011751256
aF0.0
aF0.0
abag1
(g7
g3
Ntp1172
Rp1173
(lp1174
F0.0
aF0.0
aF-0.031724331629044165
ababag1
(g2
g3
Ntp1175
Rp1176
(lp1177
g1
(g7
g3
Ntp1178
Rp1179
(lp1180
F1.4363165455497868
aF0.0
aF0.0
abag1
(g7
g3
Ntp1181
Rp1182
(lp1183
F0.0
aF0.0
aF-0.029546877463636875
ababag1
(g2
g3
Ntp1184
Rp1185
(lp1186
g1
(g7
g3
Ntp1187
Rp1188
(lp1189
F1.4351928410425967
aF0.0
aF0.0
abag1
(g7
g3
Ntp1190
Rp1191
(lp1192
F0.0
aF0.0
aF-0.047232944581562894
ababag1
(g2
g3
Ntp1193
Rp1194
(lp1195
g1
(g7
g3
Ntp1196
Rp1197
(lp1198
F1.5022558411823121
aF0.0
aF0.0
abag1
(g7
g3
Ntp1199
Rp1200
(lp1201
F0.0
aF0.0
aF-0.014283207999777552
ababag1
(g2
g3
Ntp1202
Rp1203
(lp1204
g1
(g7
g3
Ntp1205
Rp1206
(lp1207
F1.510167349271954
aF0.0
aF0.0
abag1
(g7
g3
Ntp1208
Rp1209
(lp1210
F0.0
aF0.0
aF-0.010855451437048592
ababag1
(g2
g3
Ntp1211
Rp1212
(lp1213
g1
(g7
g3
Ntp1214
Rp1215
(lp1216
F1.5113179688095968
aF0.0
aF0.0
abag1
(g7
g3
Ntp1217
Rp1218
(lp1219
F0.0
aF0.0
aF-0.01332635233430133
ababag1
(g2
g3
Ntp1220
Rp1221
(lp1222
g1
(g7
g3
Ntp1223
Rp1224
(lp1225
F1.5258505115496155
aF0.0
aF0.0
abag1
(g7
g3
Ntp1226
Rp1227
(lp1228
F0.0
aF0.0
aF0.0007979259036754429
ababag1
(g2
g3
Ntp1229
Rp1230
(lp1231
g1
(g7
g3
Ntp1232
Rp1233
(lp1234
F1.5296533189763477
aF0.0
aF0.0
abag1
(g7
g3
Ntp1235
Rp1236
(lp1237
F0.0
aF0.0
aF0.006637835843371445
ababag1
(g2
g3
Ntp1238
Rp1239
(lp1240
g1
(g7
g3
Ntp1241
Rp1242
(lp1243
F1.5168014579523859
aF0.0
aF0.0
abag1
(g7
g3
Ntp1244
Rp1245
(lp1246
F0.0
aF0.0
aF0.014323387026361795
ababag1
(g2
g3
Ntp1247
Rp1248
(lp1249
g1
(g7
g3
Ntp1250
Rp1251
(lp1252
F1.5333777908952784
aF0.0
aF0.0
abag1
(g7
g3
Ntp1253
Rp1254
(lp1255
F0.0
aF0.0
aF0.026631305286223345
ababag1
(g2
g3
Ntp1256
Rp1257
(lp1258
g1
(g7
g3
Ntp1259
Rp1260
(lp1261
F1.5678051610863322
aF0.0
aF0.0
abag1
(g7
g3
Ntp1262
Rp1263
(lp1264
F0.0
aF0.0
aF0.04022055277006051
ababag1
(g2
g3
Ntp1265
Rp1266
(lp1267
g1
(g7
g3
Ntp1268
Rp1269
(lp1270
F1.6117905810309525
aF0.0
aF0.0
abag1
(g7
g3
Ntp1271
Rp1272
(lp1273
F0.0
aF0.0
aF0.048192690179989846
ababag1
(g2
g3
Ntp1274
Rp1275
(lp1276
g1
(g7
g3
Ntp1277
Rp1278
(lp1279
F1.5696228840564783
aF0.0
aF0.0
abag1
(g7
g3
Ntp1280
Rp1281
(lp1282
F0.0
aF0.0
aF0.07537343042532241
ababag1
(g2
g3
Ntp1283
Rp1284
(lp1285
g1
(g7
g3
Ntp1286
Rp1287
(lp1288
F1.540680446841824
aF0.0
aF0.0
abag1
(g7
g3
Ntp1289
Rp1290
(lp1291
F0.0
aF0.0
aF0.06518622777894913
ababag1
(g2
g3
Ntp1292
Rp1293
(lp1294
g1
(g7
g3
Ntp1295
Rp1296
(lp1297
F1.5111010583753997
aF0.0
aF0.0
abag1
(g7
g3
Ntp1298
Rp1299
(lp1300
F0.0
aF0.0
aF0.06892801385562462
ababag1
(g2
g3
Ntp1301
Rp1302
(lp1303
g1
(g7
g3
Ntp1304
Rp1305
(lp1306
F1.4726790168826127
aF0.0
aF0.0
abag1
(g7
g3
Ntp1307
Rp1308
(lp1309
F0.0
aF0.0
aF0.08299459570499092
ababag1
(g2
g3
Ntp1310
Rp1311
(lp1312
g1
(g7
g3
Ntp1313
Rp1314
(lp1315
F1.4455791341055153
aF0.0
aF0.0
abag1
(g7
g3
Ntp1316
Rp1317
(lp1318
F0.0
aF0.0
aF0.09205790278685791
ababag1
(g2
g3
Ntp1319
Rp1320
(lp1321
g1
(g7
g3
Ntp1322
Rp1323
(lp1324
F1.407086984918676
aF0.0
aF0.0
abag1
(g7
g3
Ntp1325
Rp1326
(lp1327
F0.0
aF0.0
aF0.10295526985978617
ababag1
(g2
g3
Ntp1328
Rp1329
(lp1330
g1
(g7
g3
Ntp1331
Rp1332
(lp1333
F1.3687752293442348
aF0.0
aF0.0
abag1
(g7
g3
Ntp1334
Rp1335
(lp1336
F0.0
aF0.0
aF0.10907636200275232
ababag1
(g2
g3
Ntp1337
Rp1338
(lp1339
g1
(g7
g3
Ntp1340
Rp1341
(lp1342
F1.329373767539839
aF0.0
aF0.0
abag1
(g7
g3
Ntp1343
Rp1344
(lp1345
F0.0
aF0.0
aF0.10722824937730717
ababag1
(g2
g3
Ntp1346
Rp1347
(lp1348
g1
(g7
g3
Ntp1349
Rp1350
(lp1351
F1.3000289009518997
aF0.0
aF0.0
abag1
(g7
g3
Ntp1352
Rp1353
(lp1354
F0.0
aF0.0
aF0.12152285708005017
ababag1
(g2
g3
Ntp1355
Rp1356
(lp1357
g1
(g7
g3
Ntp1358
Rp1359
(lp1360
F1.242792147022609
aF0.0
aF0.0
abag1
(g7
g3
Ntp1361
Rp1362
(lp1363
F0.0
aF0.0
aF0.09024356256507757
ababag1
(g2
g3
Ntp1364
Rp1365
(lp1366
g1
(g7
g3
Ntp1367
Rp1368
(lp1369
F1.200574056262964
aF0.0
aF0.0
abag1
(g7
g3
Ntp1370
Rp1371
(lp1372
F0.0
aF0.0
aF0.09200123477485227
ababag1
(g2
g3
Ntp1373
Rp1374
(lp1375
g1
(g7
g3
Ntp1376
Rp1377
(lp1378
F1.1896619428797228
aF0.0
aF0.0
abag1
(g7
g3
Ntp1379
Rp1380
(lp1381
F0.0
aF0.0
aF0.09953379194123013
ababag1
(g2
g3
Ntp1382
Rp1383
(lp1384
g1
(g7
g3
Ntp1385
Rp1386
(lp1387
F1.1922786030826515
aF0.0
aF0.0
abag1
(g7
g3
Ntp1388
Rp1389
(lp1390
F0.0
aF0.0
aF0.11156140287317792
ababag1
(g2
g3
Ntp1391
Rp1392
(lp1393
g1
(g7
g3
Ntp1394
Rp1395
(lp1396
F1.145543381696153
aF0.0
aF0.0
abag1
(g7
g3
Ntp1397
Rp1398
(lp1399
F0.0
aF0.0
aF0.11127151483427045
ababag1
(g2
g3
Ntp1400
Rp1401
(lp1402
g1
(g7
g3
Ntp1403
Rp1404
(lp1405
F1.0967716550459041
aF0.0
aF0.0
abag1
(g7
g3
Ntp1406
Rp1407
(lp1408
F0.0
aF0.0
aF0.11271586757129456
ababag1
(g2
g3
Ntp1409
Rp1410
(lp1411
g1
(g7
g3
Ntp1412
Rp1413
(lp1414
F1.050954950189464
aF0.0
aF0.0
abag1
(g7
g3
Ntp1415
Rp1416
(lp1417
F0.0
aF0.0
aF0.1153384411052171
ababag1
(g2
g3
Ntp1418
Rp1419
(lp1420
g1
(g7
g3
Ntp1421
Rp1422
(lp1423
F1.0101187911458998
aF0.0
aF0.0
abag1
(g7
g3
Ntp1424
Rp1425
(lp1426
F0.0
aF0.0
aF0.09400830560073634
ababag1
(g2
g3
Ntp1427
Rp1428
(lp1429
g1
(g7
g3
Ntp1430
Rp1431
(lp1432
F0.9791445349161414
aF0.0
aF0.0
abag1
(g7
g3
Ntp1433
Rp1434
(lp1435
F0.0
aF0.0
aF0.11099354608561084
ababag1
(g2
g3
Ntp1436
Rp1437
(lp1438
g1
(g7
g3
Ntp1439
Rp1440
(lp1441
F0.9339360742691009
aF0.0
aF0.0
abag1
(g7
g3
Ntp1442
Rp1443
(lp1444
F0.0
aF0.0
aF0.11631358722718044
ababag1
(g2
g3
Ntp1445
Rp1446
(lp1447
g1
(g7
g3
Ntp1448
Rp1449
(lp1450
F0.8828100555399813
aF0.0
aF0.0
abag1
(g7
g3
Ntp1451
Rp1452
(lp1453
F0.0
aF0.0
aF0.07692931010837831
ababag1
(g2
g3
Ntp1454
Rp1455
(lp1456
g1
(g7
g3
Ntp1457
Rp1458
(lp1459
F0.8527413431958321
aF0.0
aF0.0
abag1
(g7
g3
Ntp1460
Rp1461
(lp1462
F0.0
aF0.0
aF0.03481249407935441
ababag1
(g2
g3
Ntp1463
Rp1464
(lp1465
g1
(g7
g3
Ntp1466
Rp1467
(lp1468
F0.8608179046487147
aF0.0
aF0.0
abag1
(g7
g3
Ntp1469
Rp1470
(lp1471
F0.0
aF0.0
aF0.03729507589171921
ababag1
(g2
g3
Ntp1472
Rp1473
(lp1474
g1
(g7
g3
Ntp1475
Rp1476
(lp1477
F0.8436348811596012
aF0.0
aF0.0
abag1
(g7
g3
Ntp1478
Rp1479
(lp1480
F0.0
aF0.0
aF0.049514842570590134
ababag1
(g2
g3
Ntp1481
Rp1482
(lp1483
g1
(g7
g3
Ntp1484
Rp1485
(lp1486
F0.8410620463140176
aF0.0
aF0.0
abag1
(g7
g3
Ntp1487
Rp1488
(lp1489
F0.0
aF0.0
aF0.057226676249820495
ababag1
(g2
g3
Ntp1490
Rp1491
(lp1492
g1
(g7
g3
Ntp1493
Rp1494
(lp1495
F0.8468148162372989
aF0.0
aF0.0
abag1
(g7
g3
Ntp1496
Rp1497
(lp1498
F0.0
aF0.0
aF0.07258686949261572
ababag1
(g2
g3
Ntp1499
Rp1500
(lp1501
g1
(g7
g3
Ntp1502
Rp1503
(lp1504
F0.8538429494068837
aF0.0
aF0.0
abag1
(g7
g3
Ntp1505
Rp1506
(lp1507
F0.0
aF0.0
aF0.08433120624830279
ababag1
(g2
g3
Ntp1508
Rp1509
(lp1510
g1
(g7
g3
Ntp1511
Rp1512
(lp1513
F0.869381001454241
aF0.0
aF0.0
abag1
(g7
g3
Ntp1514
Rp1515
(lp1516
F0.0
aF0.0
aF0.07656574134534093
ababag1
(g2
g3
Ntp1517
Rp1518
(lp1519
g1
(g7
g3
Ntp1520
Rp1521
(lp1522
F0.9029791438141405
aF0.0
aF0.0
abag1
(g7
g3
Ntp1523
Rp1524
(lp1525
F0.0
aF0.0
aF0.0766386887492464
ababag1
(g2
g3
Ntp1526
Rp1527
(lp1528
g1
(g7
g3
Ntp1529
Rp1530
(lp1531
F0.8844305713550115
aF0.0
aF0.0
abag1
(g7
g3
Ntp1532
Rp1533
(lp1534
F0.0
aF0.0
aF0.065385392897537
ababag1
(g2
g3
Ntp1535
Rp1536
(lp1537
g1
(g7
g3
Ntp1538
Rp1539
(lp1540
F0.8335628758865258
aF0.0
aF0.0
abag1
(g7
g3
Ntp1541
Rp1542
(lp1543
F0.0
aF0.0
aF0.07204961953387244
ababag1
(g2
g3
Ntp1544
Rp1545
(lp1546
g1
(g7
g3
Ntp1547
Rp1548
(lp1549
F0.9042057606076868
aF0.0
aF0.0
abag1
(g7
g3
Ntp1550
Rp1551
(lp1552
F0.0
aF0.0
aF0.06263247113809542
ababag1
(g2
g3
Ntp1553
Rp1554
(lp1555
g1
(g7
g3
Ntp1556
Rp1557
(lp1558
F0.8464327052002388
aF0.0
aF0.0
abag1
(g7
g3
Ntp1559
Rp1560
(lp1561
F0.0
aF0.0
aF0.07589753556083405
ababag1
(g2
g3
Ntp1562
Rp1563
(lp1564
g1
(g7
g3
Ntp1565
Rp1566
(lp1567
F0.7875707056548159
aF0.0
aF0.0
abag1
(g7
g3
Ntp1568
Rp1569
(lp1570
F0.0
aF0.0
aF0.07057084434175621
ababag1
(g2
g3
Ntp1571
Rp1572
(lp1573
g1
(g7
g3
Ntp1574
Rp1575
(lp1576
F0.77691200353685
aF0.0
aF0.0
abag1
(g7
g3
Ntp1577
Rp1578
(lp1579
F0.0
aF0.0
aF0.06559587916649223
ababag1
(g2
g3
Ntp1580
Rp1581
(lp1582
g1
(g7
g3
Ntp1583
Rp1584
(lp1585
F0.7610707423037635
aF0.0
aF0.0
abag1
(g7
g3
Ntp1586
Rp1587
(lp1588
F0.0
aF0.0
aF0.07342663485848319
ababag1
(g2
g3
Ntp1589
Rp1590
(lp1591
g1
(g7
g3
Ntp1592
Rp1593
(lp1594
F0.7592049691459681
aF0.0
aF0.0
abag1
(g7
g3
Ntp1595
Rp1596
(lp1597
F0.0
aF0.0
aF0.060256361991642006
ababag1
(g2
g3
Ntp1598
Rp1599
(lp1600
g1
(g7
g3
Ntp1601
Rp1602
(lp1603
F0.7722430551078034
aF0.0
aF0.0
abag1
(g7
g3
Ntp1604
Rp1605
(lp1606
F0.0
aF0.0
aF0.04920263509190391
ababag1
(g2
g3
Ntp1607
Rp1608
(lp1609
g1
(g7
g3
Ntp1610
Rp1611
(lp1612
F0.8015559306625585
aF0.0
aF0.0
abag1
(g7
g3
Ntp1613
Rp1614
(lp1615
F0.0
aF0.0
aF0.04581904571536855
ababag1
(g2
g3
Ntp1616
Rp1617
(lp1618
g1
(g7
g3
Ntp1619
Rp1620
(lp1621
F0.7584555938770762
aF0.0
aF0.0
abag1
(g7
g3
Ntp1622
Rp1623
(lp1624
F0.0
aF0.0
aF0.04030652491768776
ababag1
(g2
g3
Ntp1625
Rp1626
(lp1627
g1
(g7
g3
Ntp1628
Rp1629
(lp1630
F0.8108004688729046
aF0.0
aF0.0
abag1
(g7
g3
Ntp1631
Rp1632
(lp1633
F0.0
aF0.0
aF0.04929056647951897
ababag1
(g2
g3
Ntp1634
Rp1635
(lp1636
g1
(g7
g3
Ntp1637
Rp1638
(lp1639
F0.7811701585054016
aF0.0
aF0.0
abag1
(g7
g3
Ntp1640
Rp1641
(lp1642
F0.0
aF0.0
aF0.06465987781739917
ababag1
(g2
g3
Ntp1643
Rp1644
(lp1645
g1
(g7
g3
Ntp1646
Rp1647
(lp1648
F0.7412262698201423
aF0.0
aF0.0
abag1
(g7
g3
Ntp1649
Rp1650
(lp1651
F0.0
aF0.0
aF0.0513052108747794
ababag1
(g2
g3
Ntp1652
Rp1653
(lp1654
g1
(g7
g3
Ntp1655
Rp1656
(lp1657
F0.7487016316557243
aF0.0
aF0.0
abag1
(g7
g3
Ntp1658
Rp1659
(lp1660
F0.0
aF0.0
aF0.03353576093805055
ababag1
(g2
g3
Ntp1661
Rp1662
(lp1663
g1
(g7
g3
Ntp1664
Rp1665
(lp1666
F0.7760017630899511
aF0.0
aF0.0
abag1
(g7
g3
Ntp1667
Rp1668
(lp1669
F0.0
aF0.0
aF0.0378053345459205
ababag1
(g2
g3
Ntp1670
Rp1671
(lp1672
g1
(g7
g3
Ntp1673
Rp1674
(lp1675
F0.7966742823290884
aF0.0
aF0.0
abag1
(g7
g3
Ntp1676
Rp1677
(lp1678
F0.0
aF0.0
aF0.03735434712855583
ababag1
(g2
g3
Ntp1679
Rp1680
(lp1681
g1
(g7
g3
Ntp1682
Rp1683
(lp1684
F0.7506281553618789
aF0.0
aF0.0
abag1
(g7
g3
Ntp1685
Rp1686
(lp1687
F0.0
aF0.0
aF0.02510687645996163
ababag1
(g2
g3
Ntp1688
Rp1689
(lp1690
g1
(g7
g3
Ntp1691
Rp1692
(lp1693
F0.7364901816960958
aF0.0
aF0.0
abag1
(g7
g3
Ntp1694
Rp1695
(lp1696
F0.0
aF0.0
aF0.03321495408186486
ababag1
(g2
g3
Ntp1697
Rp1698
(lp1699
g1
(g7
g3
Ntp1700
Rp1701
(lp1702
F0.6948240085747724
aF0.0
aF0.0
abag1
(g7
g3
Ntp1703
Rp1704
(lp1705
F0.0
aF0.0
aF0.04140714063852088
ababag1
(g2
g3
Ntp1706
Rp1707
(lp1708
g1
(g7
g3
Ntp1709
Rp1710
(lp1711
F0.6841038211850292
aF0.0
aF0.0
abag1
(g7
g3
Ntp1712
Rp1713
(lp1714
F0.0
aF0.0
aF0.04136957338743007
ababag1
(g2
g3
Ntp1715
Rp1716
(lp1717
g1
(g7
g3
Ntp1718
Rp1719
(lp1720
F0.660415585315976
aF0.0
aF0.0
abag1
(g7
g3
Ntp1721
Rp1722
(lp1723
F0.0
aF0.0
aF0.040163968311305615
ababag1
(g2
g3
Ntp1724
Rp1725
(lp1726
g1
(g7
g3
Ntp1727
Rp1728
(lp1729
F0.6895810262663861
aF0.0
aF0.0
abag1
(g7
g3
Ntp1730
Rp1731
(lp1732
F0.0
aF0.0
aF0.027329538313613257
ababag1
(g2
g3
Ntp1733
Rp1734
(lp1735
g1
(g7
g3
Ntp1736
Rp1737
(lp1738
F0.692123331283674
aF0.0
aF0.0
abag1
(g7
g3
Ntp1739
Rp1740
(lp1741
F0.0
aF0.0
aF0.02932263223696214
ababag1
(g2
g3
Ntp1742
Rp1743
(lp1744
g1
(g7
g3
Ntp1745
Rp1746
(lp1747
F0.7155373445654226
aF0.0
aF0.0
abag1
(g7
g3
Ntp1748
Rp1749
(lp1750
F0.0
aF0.0
aF0.028876789049299797
ababag1
(g2
g3
Ntp1751
Rp1752
(lp1753
g1
(g7
g3
Ntp1754
Rp1755
(lp1756
F0.695989564924195
aF0.0
aF0.0
abag1
(g7
g3
Ntp1757
Rp1758
(lp1759
F0.0
aF0.0
aF0.02502049926666396
ababag1
(g2
g3
Ntp1760
Rp1761
(lp1762
g1
(g7
g3
Ntp1763
Rp1764
(lp1765
F0.6708423865441973
aF0.0
aF0.0
abag1
(g7
g3
Ntp1766
Rp1767
(lp1768
F0.0
aF0.0
aF0.03333358404941914
ababag1
(g2
g3
Ntp1769
Rp1770
(lp1771
g1
(g7
g3
Ntp1772
Rp1773
(lp1774
F0.6827224330076932
aF0.0
aF0.0
abag1
(g7
g3
Ntp1775
Rp1776
(lp1777
F0.0
aF0.0
aF0.028259687262977312
ababag1
(g2
g3
Ntp1778
Rp1779
(lp1780
g1
(g7
g3
Ntp1781
Rp1782
(lp1783
F0.6631277467948077
aF0.0
aF0.0
abag1
(g7
g3
Ntp1784
Rp1785
(lp1786
F0.0
aF0.0
aF0.028175465176444592
ababag1
(g2
g3
Ntp1787
Rp1788
(lp1789
g1
(g7
g3
Ntp1790
Rp1791
(lp1792
F0.6291349530303598
aF0.0
aF0.0
abag1
(g7
g3
Ntp1793
Rp1794
(lp1795
F0.0
aF0.0
aF0.03695530216170729
ababag1
(g2
g3
Ntp1796
Rp1797
(lp1798
g1
(g7
g3
Ntp1799
Rp1800
(lp1801
F0.603252234782491
aF0.0
aF0.0
abag1
(g7
g3
Ntp1802
Rp1803
(lp1804
F0.0
aF0.0
aF0.028107719363001608
ababag1
(g2
g3
Ntp1805
Rp1806
(lp1807
g1
(g7
g3
Ntp1808
Rp1809
(lp1810
F0.595533553735205
aF0.0
aF0.0
abag1
(g7
g3
Ntp1811
Rp1812
(lp1813
F0.0
aF0.0
aF0.023460850845488584
ababag1
(g2
g3
Ntp1814
Rp1815
(lp1816
g1
(g7
g3
Ntp1817
Rp1818
(lp1819
F0.597154640824241
aF0.0
aF0.0
abag1
(g7
g3
Ntp1820
Rp1821
(lp1822
F0.0
aF0.0
aF0.021548525420149876
ababag1
(g2
g3
Ntp1823
Rp1824
(lp1825
g1
(g7
g3
Ntp1826
Rp1827
(lp1828
F0.6032313937868609
aF0.0
aF0.0
abag1
(g7
g3
Ntp1829
Rp1830
(lp1831
F0.0
aF0.0
aF0.020389816539609303
ababag1
(g2
g3
Ntp1832
Rp1833
(lp1834
g1
(g7
g3
Ntp1835
Rp1836
(lp1837
F0.6170705591155606
aF0.0
aF0.0
abag1
(g7
g3
Ntp1838
Rp1839
(lp1840
F0.0
aF0.0
aF0.025085537796495423
ababag1
(g2
g3
Ntp1841
Rp1842
(lp1843
g1
(g7
g3
Ntp1844
Rp1845
(lp1846
F0.6929594599267016
aF0.0
aF0.0
abag1
(g7
g3
Ntp1847
Rp1848
(lp1849
F0.0
aF0.0
aF0.02338551434045611
ababag1
(g2
g3
Ntp1850
Rp1851
(lp1852
g1
(g7
g3
Ntp1853
Rp1854
(lp1855
F0.6483438709768472
aF0.0
aF0.0
abag1
(g7
g3
Ntp1856
Rp1857
(lp1858
F0.0
aF0.0
aF0.01972181904619813
ababag1
(g2
g3
Ntp1859
Rp1860
(lp1861
g1
(g7
g3
Ntp1862
Rp1863
(lp1864
F0.634779155059572
aF0.0
aF0.0
abag1
(g7
g3
Ntp1865
Rp1866
(lp1867
F0.0
aF0.0
aF0.025045530265508445
ababag1
(g2
g3
Ntp1868
Rp1869
(lp1870
g1
(g7
g3
Ntp1871
Rp1872
(lp1873
F0.6015891037219487
aF0.0
aF0.0
abag1
(g7
g3
Ntp1874
Rp1875
(lp1876
F0.0
aF0.0
aF0.026775650721318368
ababag1
(g2
g3
Ntp1877
Rp1878
(lp1879
g1
(g7
g3
Ntp1880
Rp1881
(lp1882
F0.5929824213387074
aF0.0
aF0.0
abag1
(g7
g3
Ntp1883
Rp1884
(lp1885
F0.0
aF0.0
aF0.02566192072047688
ababag1
(g2
g3
Ntp1886
Rp1887
(lp1888
g1
(g7
g3
Ntp1889
Rp1890
(lp1891
F0.6469495039496778
aF0.0
aF0.0
abag1
(g7
g3
Ntp1892
Rp1893
(lp1894
F0.0
aF0.0
aF0.021027080484798562
ababag1
(g2
g3
Ntp1895
Rp1896
(lp1897
g1
(g7
g3
Ntp1898
Rp1899
(lp1900
F0.6317271871471931
aF0.0
aF0.0
abag1
(g7
g3
Ntp1901
Rp1902
(lp1903
F0.0
aF0.0
aF0.02036986553918738
ababag1
(g2
g3
Ntp1904
Rp1905
(lp1906
g1
(g7
g3
Ntp1907
Rp1908
(lp1909
F0.6189674285964105
aF0.0
aF0.0
abag1
(g7
g3
Ntp1910
Rp1911
(lp1912
F0.0
aF0.0
aF0.02872479705892987
ababag1
(g2
g3
Ntp1913
Rp1914
(lp1915
g1
(g7
g3
Ntp1916
Rp1917
(lp1918
F0.664792559015185
aF0.0
aF0.0
abag1
(g7
g3
Ntp1919
Rp1920
(lp1921
F0.0
aF0.0
aF0.027069002005047128
ababag1
(g2
g3
Ntp1922
Rp1923
(lp1924
g1
(g7
g3
Ntp1925
Rp1926
(lp1927
F0.6559475740824157
aF0.0
aF0.0
abag1
(g7
g3
Ntp1928
Rp1929
(lp1930
F0.0
aF0.0
aF0.02959173326895445
ababag1
(g2
g3
Ntp1931
Rp1932
(lp1933
g1
(g7
g3
Ntp1934
Rp1935
(lp1936
F0.6488955086827987
aF0.0
aF0.0
abag1
(g7
g3
Ntp1937
Rp1938
(lp1939
F0.0
aF0.0
aF0.028824542947303196
ababag1
(g2
g3
Ntp1940
Rp1941
(lp1942
g1
(g7
g3
Ntp1943
Rp1944
(lp1945
F0.6234908186985844
aF0.0
aF0.0
abag1
(g7
g3
Ntp1946
Rp1947
(lp1948
F0.0
aF0.0
aF0.03173908157232738
ababag1
(g2
g3
Ntp1949
Rp1950
(lp1951
g1
(g7
g3
Ntp1952
Rp1953
(lp1954
F0.6590806156830932
aF0.0
aF0.0
abag1
(g7
g3
Ntp1955
Rp1956
(lp1957
F0.0
aF0.0
aF0.02959018598619225
ababag1
(g2
g3
Ntp1958
Rp1959
(lp1960
g1
(g7
g3
Ntp1961
Rp1962
(lp1963
F0.705714014504499
aF0.0
aF0.0
abag1
(g7
g3
Ntp1964
Rp1965
(lp1966
F0.0
aF0.0
aF0.036637701950249325
ababag1
(g2
g3
Ntp1967
Rp1968
(lp1969
g1
(g7
g3
Ntp1970
Rp1971
(lp1972
F0.6560575135478606
aF0.0
aF0.0
abag1
(g7
g3
Ntp1973
Rp1974
(lp1975
F0.0
aF0.0
aF0.0264684975955925
ababag1
(g2
g3
Ntp1976
Rp1977
(lp1978
g1
(g7
g3
Ntp1979
Rp1980
(lp1981
F0.6417090033491382
aF0.0
aF0.0
abag1
(g7
g3
Ntp1982
Rp1983
(lp1984
F0.0
aF0.0
aF0.03491604936007489
ababag1
(g2
g3
Ntp1985
Rp1986
(lp1987
g1
(g7
g3
Ntp1988
Rp1989
(lp1990
F0.6478567879647861
aF0.0
aF0.0
abag1
(g7
g3
Ntp1991
Rp1992
(lp1993
F0.0
aF0.0
aF0.03013949708165465
ababag1
(g2
g3
Ntp1994
Rp1995
(lp1996
g1
(g7
g3
Ntp1997
Rp1998
(lp1999
F0.6237799476638523
aF0.0
aF0.0
abag1
(g7
g3
Ntp2000
Rp2001
(lp2002
F0.0
aF0.0
aF0.03180299076971279
ababag1
(g2
g3
Ntp2003
Rp2004
(lp2005
g1
(g7
g3
Ntp2006
Rp2007
(lp2008
F0.6753038779534268
aF0.0
aF0.0
abag1
(g7
g3
Ntp2009
Rp2010
(lp2011
F0.0
aF0.0
aF0.035563209294540016
ababag1
(g2
g3
Ntp2012
Rp2013
(lp2014
g1
(g7
g3
Ntp2015
Rp2016
(lp2017
F0.7498187859642684
aF0.0
aF0.0
abag1
(g7
g3
Ntp2018
Rp2019
(lp2020
F0.0
aF0.0
aF0.044724016110234334
ababag1
(g2
g3
Ntp2021
Rp2022
(lp2023
g1
(g7
g3
Ntp2024
Rp2025
(lp2026
F0.708346606210184
aF0.0
aF0.0
abag1
(g7
g3
Ntp2027
Rp2028
(lp2029
F0.0
aF0.0
aF0.031492202390594984
ababag1
(g2
g3
Ntp2030
Rp2031
(lp2032
g1
(g7
g3
Ntp2033
Rp2034
(lp2035
F0.6895284540942223
aF0.0
aF0.0
abag1
(g7
g3
Ntp2036
Rp2037
(lp2038
F0.0
aF0.0
aF0.03905294318817884
ababag1
(g2
g3
Ntp2039
Rp2040
(lp2041
g1
(g7
g3
Ntp2042
Rp2043
(lp2044
F0.6811313682850513
aF0.0
aF0.0
abag1
(g7
g3
Ntp2045
Rp2046
(lp2047
F0.0
aF0.0
aF0.04906739765464002
ababag1
(g2
g3
Ntp2048
Rp2049
(lp2050
g1
(g7
g3
Ntp2051
Rp2052
(lp2053
F0.6748501106046414
aF0.0
aF0.0
abag1
(g7
g3
Ntp2054
Rp2055
(lp2056
F0.0
aF0.0
aF0.03466060958737864
ababag1
(g2
g3
Ntp2057
Rp2058
(lp2059
g1
(g7
g3
Ntp2060
Rp2061
(lp2062
F0.6707949424885894
aF0.0
aF0.0
abag1
(g7
g3
Ntp2063
Rp2064
(lp2065
F0.0
aF0.0
aF0.03733477024483427
ababag1
(g2
g3
Ntp2066
Rp2067
(lp2068
g1
(g7
g3
Ntp2069
Rp2070
(lp2071
F0.7267579719884472
aF0.0
aF0.0
abag1
(g7
g3
Ntp2072
Rp2073
(lp2074
F0.0
aF0.0
aF0.04061841896230468
ababag1
(g2
g3
Ntp2075
Rp2076
(lp2077
g1
(g7
g3
Ntp2078
Rp2079
(lp2080
F0.738945060307471
aF0.0
aF0.0
abag1
(g7
g3
Ntp2081
Rp2082
(lp2083
F0.0
aF0.0
aF0.03882688295211005
ababag1
(g2
g3
Ntp2084
Rp2085
(lp2086
g1
(g7
g3
Ntp2087
Rp2088
(lp2089
F0.7589643675261009
aF0.0
aF0.0
abag1
(g7
g3
Ntp2090
Rp2091
(lp2092
F0.0
aF0.0
aF0.037864003937321034
ababag1
(g2
g3
Ntp2093
Rp2094
(lp2095
g1
(g7
g3
Ntp2096
Rp2097
(lp2098
F0.7768522110441721
aF0.0
aF0.0
abag1
(g7
g3
Ntp2099
Rp2100
(lp2101
F0.0
aF0.0
aF0.03625941516983502
ababag1
(g2
g3
Ntp2102
Rp2103
(lp2104
g1
(g7
g3
Ntp2105
Rp2106
(lp2107
F0.7431428534821108
aF0.0
aF0.0
abag1
(g7
g3
Ntp2108
Rp2109
(lp2110
F0.0
aF0.0
aF0.035718997579121906
ababag1
(g2
g3
Ntp2111
Rp2112
(lp2113
g1
(g7
g3
Ntp2114
Rp2115
(lp2116
F0.7059978037004476
aF0.0
aF0.0
abag1
(g7
g3
Ntp2117
Rp2118
(lp2119
F0.0
aF0.0
aF0.04145079143863281
ababag1
(g2
g3
Ntp2120
Rp2121
(lp2122
g1
(g7
g3
Ntp2123
Rp2124
(lp2125
F0.7141030210091751
aF0.0
aF0.0
abag1
(g7
g3
Ntp2126
Rp2127
(lp2128
F0.0
aF0.0
aF0.03738097031808521
ababag1
(g2
g3
Ntp2129
Rp2130
(lp2131
g1
(g7
g3
Ntp2132
Rp2133
(lp2134
F0.696782417106354
aF0.0
aF0.0
abag1
(g7
g3
Ntp2135
Rp2136
(lp2137
F0.0
aF0.0
aF0.0438566662469022
ababag1
(g2
g3
Ntp2138
Rp2139
(lp2140
g1
(g7
g3
Ntp2141
Rp2142
(lp2143
F0.7067246396764647
aF0.0
aF0.0
abag1
(g7
g3
Ntp2144
Rp2145
(lp2146
F0.0
aF0.0
aF0.03757438431592116
ababag1
(g2
g3
Ntp2147
Rp2148
(lp2149
g1
(g7
g3
Ntp2150
Rp2151
(lp2152
F0.7379473342349866
aF0.0
aF0.0
abag1
(g7
g3
Ntp2153
Rp2154
(lp2155
F0.0
aF0.0
aF0.03496095000290229
ababag1
(g2
g3
Ntp2156
Rp2157
(lp2158
g1
(g7
g3
Ntp2159
Rp2160
(lp2161
F0.7910450396372471
aF0.0
aF0.0
abag1
(g7
g3
Ntp2162
Rp2163
(lp2164
F0.0
aF0.0
aF0.042992853355114186
ababag1
(g2
g3
Ntp2165
Rp2166
(lp2167
g1
(g7
g3
Ntp2168
Rp2169
(lp2170
F0.773452344003978
aF0.0
aF0.0
abag1
(g7
g3
Ntp2171
Rp2172
(lp2173
F0.0
aF0.0
aF0.04106173567476444
ababag1
(g2
g3
Ntp2174
Rp2175
(lp2176
g1
(g7
g3
Ntp2177
Rp2178
(lp2179
F0.7564010516557629
aF0.0
aF0.0
abag1
(g7
g3
Ntp2180
Rp2181
(lp2182
F0.0
aF0.0
aF0.041008781157038834
ababag1
(g2
g3
Ntp2183
Rp2184
(lp2185
g1
(g7
g3
Ntp2186
Rp2187
(lp2188
F0.733711213887977
aF0.0
aF0.0
abag1
(g7
g3
Ntp2189
Rp2190
(lp2191
F0.0
aF0.0
aF0.06918033281107384
ababag1
(g2
g3
Ntp2192
Rp2193
(lp2194
g1
(g7
g3
Ntp2195
Rp2196
(lp2197
F0.7422570003898047
aF0.0
aF0.0
abag1
(g7
g3
Ntp2198
Rp2199
(lp2200
F0.0
aF0.0
aF0.03261161343725209
ababag1
(g2
g3
Ntp2201
Rp2202
(lp2203
g1
(g7
g3
Ntp2204
Rp2205
(lp2206
F0.7627394792942965
aF0.0
aF0.0
abag1
(g7
g3
Ntp2207
Rp2208
(lp2209
F0.0
aF0.0
aF0.030840785432600274
ababag1
(g2
g3
Ntp2210
Rp2211
(lp2212
g1
(g7
g3
Ntp2213
Rp2214
(lp2215
F0.7834423941842195
aF0.0
aF0.0
abag1
(g7
g3
Ntp2216
Rp2217
(lp2218
F0.0
aF0.0
aF0.03427447763592779
ababag1
(g2
g3
Ntp2219
Rp2220
(lp2221
g1
(g7
g3
Ntp2222
Rp2223
(lp2224
F0.8100863857585242
aF0.0
aF0.0
abag1
(g7
g3
Ntp2225
Rp2226
(lp2227
F0.0
aF0.0
aF0.03783193382162549
ababag1
(g2
g3
Ntp2228
Rp2229
(lp2230
g1
(g7
g3
Ntp2231
Rp2232
(lp2233
F0.8467748083434053
aF0.0
aF0.0
abag1
(g7
g3
Ntp2234
Rp2235
(lp2236
F0.0
aF0.0
aF0.04089628789692457
ababag1
(g2
g3
Ntp2237
Rp2238
(lp2239
g1
(g7
g3
Ntp2240
Rp2241
(lp2242
F0.8856896846534952
aF0.0
aF0.0
abag1
(g7
g3
Ntp2243
Rp2244
(lp2245
F0.0
aF0.0
aF0.04540734089351591
ababag1
(g2
g3
Ntp2246
Rp2247
(lp2248
g1
(g7
g3
Ntp2249
Rp2250
(lp2251
F0.8529003396403139
aF0.0
aF0.0
abag1
(g7
g3
Ntp2252
Rp2253
(lp2254
F0.0
aF0.0
aF0.04607346710699254
ababag1
(g2
g3
Ntp2255
Rp2256
(lp2257
g1
(g7
g3
Ntp2258
Rp2259
(lp2260
F0.8508887929746255
aF0.0
aF0.0
abag1
(g7
g3
Ntp2261
Rp2262
(lp2263
F0.0
aF0.0
aF0.08515186334456548
ababag1
(g2
g3
Ntp2264
Rp2265
(lp2266
g1
(g7
g3
Ntp2267
Rp2268
(lp2269
F0.8764989533142581
aF0.0
aF0.0
abag1
(g7
g3
Ntp2270
Rp2271
(lp2272
F0.0
aF0.0
aF0.09050204180190147
ababag1
(g2
g3
Ntp2273
Rp2274
(lp2275
g1
(g7
g3
Ntp2276
Rp2277
(lp2278
F0.9187272932592883
aF0.0
aF0.0
abag1
(g7
g3
Ntp2279
Rp2280
(lp2281
F0.0
aF0.0
aF0.07824340679664127
ababag1
(g2
g3
Ntp2282
Rp2283
(lp2284
g1
(g7
g3
Ntp2285
Rp2286
(lp2287
F0.9564604368022424
aF0.0
aF0.0
abag1
(g7
g3
Ntp2288
Rp2289
(lp2290
F0.0
aF0.0
aF0.058945548850297846
ababag1
(g2
g3
Ntp2291
Rp2292
(lp2293
g1
(g7
g3
Ntp2294
Rp2295
(lp2296
F0.94300152200392
aF0.0
aF0.0
abag1
(g7
g3
Ntp2297
Rp2298
(lp2299
F0.0
aF0.0
aF0.04420126436078532
ababag1
(g2
g3
Ntp2300
Rp2301
(lp2302
g1
(g7
g3
Ntp2303
Rp2304
(lp2305
F0.9295318070138615
aF0.0
aF0.0
abag1
(g7
g3
Ntp2306
Rp2307
(lp2308
F0.0
aF0.0
aF0.08320887802560308
ababag1
(g2
g3
Ntp2309
Rp2310
(lp2311
g1
(g7
g3
Ntp2312
Rp2313
(lp2314
F0.9133968282739525
aF0.0
aF0.0
abag1
(g7
g3
Ntp2315
Rp2316
(lp2317
F0.0
aF0.0
aF0.08998664168835267
ababag1
(g2
g3
Ntp2318
Rp2319
(lp2320
g1
(g7
g3
Ntp2321
Rp2322
(lp2323
F0.9082238778040347
aF0.0
aF0.0
abag1
(g7
g3
Ntp2324
Rp2325
(lp2326
F0.0
aF0.0
aF0.10778058640946728
ababag1
(g2
g3
Ntp2327
Rp2328
(lp2329
g1
(g7
g3
Ntp2330
Rp2331
(lp2332
F0.896959940033882
aF0.0
aF0.0
abag1
(g7
g3
Ntp2333
Rp2334
(lp2335
F0.0
aF0.0
aF0.06685924232221466
ababag1
(g2
g3
Ntp2336
Rp2337
(lp2338
g1
(g7
g3
Ntp2339
Rp2340
(lp2341
F0.875916602773169
aF0.0
aF0.0
abag1
(g7
g3
Ntp2342
Rp2343
(lp2344
F0.0
aF0.0
aF0.047936012274200454
ababag1
(g2
g3
Ntp2345
Rp2346
(lp2347
g1
(g7
g3
Ntp2348
Rp2349
(lp2350
F0.8671556221594721
aF0.0
aF0.0
abag1
(g7
g3
Ntp2351
Rp2352
(lp2353
F0.0
aF0.0
aF0.060224303184741666
ababag1
(g2
g3
Ntp2354
Rp2355
(lp2356
g1
(g7
g3
Ntp2357
Rp2358
(lp2359
F0.9616089640517159
aF0.0
aF0.0
abag1
(g7
g3
Ntp2360
Rp2361
(lp2362
F0.0
aF0.0
aF0.09434163584813306
ababag1
(g2
g3
Ntp2363
Rp2364
(lp2365
g1
(g7
g3
Ntp2366
Rp2367
(lp2368
F0.9461635289890516
aF0.0
aF0.0
abag1
(g7
g3
Ntp2369
Rp2370
(lp2371
F0.0
aF0.0
aF0.08331050906288193
ababag1
(g2
g3
Ntp2372
Rp2373
(lp2374
g1
(g7
g3
Ntp2375
Rp2376
(lp2377
F0.9519641576490316
aF0.0
aF0.0
abag1
(g7
g3
Ntp2378
Rp2379
(lp2380
F0.0
aF0.0
aF0.1042290768344611
ababag1
(g2
g3
Ntp2381
Rp2382
(lp2383
g1
(g7
g3
Ntp2384
Rp2385
(lp2386
F0.9860972391203624
aF0.0
aF0.0
abag1
(g7
g3
Ntp2387
Rp2388
(lp2389
F0.0
aF0.0
aF0.1177619484977985
ababag1
(g2
g3
Ntp2390
Rp2391
(lp2392
g1
(g7
g3
Ntp2393
Rp2394
(lp2395
F1.0119266670618292
aF0.0
aF0.0
abag1
(g7
g3
Ntp2396
Rp2397
(lp2398
F0.0
aF0.0
aF0.12849010172027714
ababag1
(g2
g3
Ntp2399
Rp2400
(lp2401
g1
(g7
g3
Ntp2402
Rp2403
(lp2404
F1.0516358445452334
aF0.0
aF0.0
abag1
(g7
g3
Ntp2405
Rp2406
(lp2407
F0.0
aF0.0
aF0.1348130485440182
ababag1
(g2
g3
Ntp2408
Rp2409
(lp2410
g1
(g7
g3
Ntp2411
Rp2412
(lp2413
F1.0554664010790575
aF0.0
aF0.0
abag1
(g7
g3
Ntp2414
Rp2415
(lp2416
F0.0
aF0.0
aF0.10579797408875481
ababag1
(g2
g3
Ntp2417
Rp2418
(lp2419
g1
(g7
g3
Ntp2420
Rp2421
(lp2422
F1.0844307045760557
aF0.0
aF0.0
abag1
(g7
g3
Ntp2423
Rp2424
(lp2425
F0.0
aF0.0
aF0.12599404814223755
ababag1
(g2
g3
Ntp2426
Rp2427
(lp2428
g1
(g7
g3
Ntp2429
Rp2430
(lp2431
F1.0859413167929173
aF0.0
aF0.0
abag1
(g7
g3
Ntp2432
Rp2433
(lp2434
F0.0
aF0.0
aF0.10305720091541963
ababag1
(g2
g3
Ntp2435
Rp2436
(lp2437
g1
(g7
g3
Ntp2438
Rp2439
(lp2440
F1.121956542291785
aF0.0
aF0.0
abag1
(g7
g3
Ntp2441
Rp2442
(lp2443
F0.0
aF0.0
aF0.13847032528127284
ababag1
(g2
g3
Ntp2444
Rp2445
(lp2446
g1
(g7
g3
Ntp2447
Rp2448
(lp2449
F1.1252259738057098
aF0.0
aF0.0
abag1
(g7
g3
Ntp2450
Rp2451
(lp2452
F0.0
aF0.0
aF0.11259679029083032
ababag1
(g2
g3
Ntp2453
Rp2454
(lp2455
g1
(g7
g3
Ntp2456
Rp2457
(lp2458
F1.1763679198077486
aF0.0
aF0.0
abag1
(g7
g3
Ntp2459
Rp2460
(lp2461
F0.0
aF0.0
aF0.14180854969608014
ababag1
(g2
g3
Ntp2462
Rp2463
(lp2464
g1
(g7
g3
Ntp2465
Rp2466
(lp2467
F1.266357197752282
aF0.0
aF0.0
abag1
(g7
g3
Ntp2468
Rp2469
(lp2470
F0.0
aF0.0
aF0.19608060938707045
ababag1
(g2
g3
Ntp2471
Rp2472
(lp2473
g1
(g7
g3
Ntp2474
Rp2475
(lp2476
F1.3372029802146894
aF0.0
aF0.0
abag1
(g7
g3
Ntp2477
Rp2478
(lp2479
F0.0
aF0.0
aF0.23808461373206002
ababag1
(g2
g3
Ntp2480
Rp2481
(lp2482
g1
(g7
g3
Ntp2483
Rp2484
(lp2485
F1.192454951617438
aF0.0
aF0.0
abag1
(g7
g3
Ntp2486
Rp2487
(lp2488
F0.0
aF0.0
aF0.18689596687324053
ababag1
(g2
g3
Ntp2489
Rp2490
(lp2491
g1
(g7
g3
Ntp2492
Rp2493
(lp2494
F1.1870679097416703
aF0.0
aF0.0
abag1
(g7
g3
Ntp2495
Rp2496
(lp2497
F0.0
aF0.0
aF0.1314724860634856
ababag1
(g2
g3
Ntp2498
Rp2499
(lp2500
g1
(g7
g3
Ntp2501
Rp2502
(lp2503
F1.2163606932306312
aF0.0
aF0.0
abag1
(g7
g3
Ntp2504
Rp2505
(lp2506
F0.0
aF0.0
aF0.17531827951293752
ababag1
(g2
g3
Ntp2507
Rp2508
(lp2509
g1
(g7
g3
Ntp2510
Rp2511
(lp2512
F1.3095806119748608
aF0.0
aF0.0
abag1
(g7
g3
Ntp2513
Rp2514
(lp2515
F0.0
aF0.0
aF0.2256310148670249
ababag1
(g2
g3
Ntp2516
Rp2517
(lp2518
g1
(g7
g3
Ntp2519
Rp2520
(lp2521
F1.287825781772792
aF0.0
aF0.0
abag1
(g7
g3
Ntp2522
Rp2523
(lp2524
F0.0
aF0.0
aF0.2283857320197245
ababag1
(g2
g3
Ntp2525
Rp2526
(lp2527
g1
(g7
g3
Ntp2528
Rp2529
(lp2530
F1.436420337303415
aF0.0
aF0.0
abag1
(g7
g3
Ntp2531
Rp2532
(lp2533
F0.0
aF0.0
aF0.2348907745579073
ababag1
(g2
g3
Ntp2534
Rp2535
(lp2536
g1
(g7
g3
Ntp2537
Rp2538
(lp2539
F1.413055395752849
aF0.0
aF0.0
abag1
(g7
g3
Ntp2540
Rp2541
(lp2542
F0.0
aF0.0
aF0.1865987186374015
ababag1
(g2
g3
Ntp2543
Rp2544
(lp2545
g1
(g7
g3
Ntp2546
Rp2547
(lp2548
F1.466202436063937
aF0.0
aF0.0
abag1
(g7
g3
Ntp2549
Rp2550
(lp2551
F0.0
aF0.0
aF0.19318641826493396
ababag1
(g2
g3
Ntp2552
Rp2553
(lp2554
g1
(g7
g3
Ntp2555
Rp2556
(lp2557
F1.4197479223832437
aF0.0
aF0.0
abag1
(g7
g3
Ntp2558
Rp2559
(lp2560
F0.0
aF0.0
aF0.19818039209622537
ababag1
(g2
g3
Ntp2561
Rp2562
(lp2563
g1
(g7
g3
Ntp2564
Rp2565
(lp2566
F1.5484161381238
aF0.0
aF0.0
abag1
(g7
g3
Ntp2567
Rp2568
(lp2569
F0.0
aF0.0
aF0.19513694166958775
ababag1
(g2
g3
Ntp2570
Rp2571
(lp2572
g1
(g7
g3
Ntp2573
Rp2574
(lp2575
F1.635061025583925
aF0.0
aF0.0
abag1
(g7
g3
Ntp2576
Rp2577
(lp2578
F0.0
aF0.0
aF0.1655491758485088
ababag1
(g2
g3
Ntp2579
Rp2580
(lp2581
g1
(g7
g3
Ntp2582
Rp2583
(lp2584
F1.7094759516998885
aF0.0
aF0.0
abag1
(g7
g3
Ntp2585
Rp2586
(lp2587
F0.0
aF0.0
aF0.1556388902402363
ababag1
(g2
g3
Ntp2588
Rp2589
(lp2590
g1
(g7
g3
Ntp2591
Rp2592
(lp2593
F1.8004779877765305
aF0.0
aF0.0
abag1
(g7
g3
Ntp2594
Rp2595
(lp2596
F0.0
aF0.0
aF0.1492585116721257
ababag1
(g2
g3
Ntp2597
Rp2598
(lp2599
g1
(g7
g3
Ntp2600
Rp2601
(lp2602
F1.8353581469796398
aF0.0
aF0.0
abag1
(g7
g3
Ntp2603
Rp2604
(lp2605
F0.0
aF0.0
aF0.1485992464733115
ababag1
(g2
g3
Ntp2606
Rp2607
(lp2608
g1
(g7
g3
Ntp2609
Rp2610
(lp2611
F1.8192877871351132
aF0.0
aF0.0
abag1
(g7
g3
Ntp2612
Rp2613
(lp2614
F0.0
aF0.0
aF0.15287139653894757
ababag1
(g2
g3
Ntp2615
Rp2616
(lp2617
g1
(g7
g3
Ntp2618
Rp2619
(lp2620
F1.9035368349515638
aF0.0
aF0.0
abag1
(g7
g3
Ntp2621
Rp2622
(lp2623
F0.0
aF0.0
aF0.1384036363499596
ababag1
(g2
g3
Ntp2624
Rp2625
(lp2626
g1
(g7
g3
Ntp2627
Rp2628
(lp2629
F1.8497196037971568
aF0.0
aF0.0
abag1
(g7
g3
Ntp2630
Rp2631
(lp2632
F0.0
aF0.0
aF0.1518730572563851
ababag1
(g2
g3
Ntp2633
Rp2634
(lp2635
g1
(g7
g3
Ntp2636
Rp2637
(lp2638
F1.7264641456580618
aF0.0
aF0.0
abag1
(g7
g3
Ntp2639
Rp2640
(lp2641
F0.0
aF0.0
aF0.16632509064555256
ababag1
(g2
g3
Ntp2642
Rp2643
(lp2644
g1
(g7
g3
Ntp2645
Rp2646
(lp2647
F1.8209520972759174
aF0.0
aF0.0
abag1
(g7
g3
Ntp2648
Rp2649
(lp2650
F0.0
aF0.0
aF0.1189311561119079
ababag1
(g2
g3
Ntp2651
Rp2652
(lp2653
g1
(g7
g3
Ntp2654
Rp2655
(lp2656
F1.733878411677225
aF0.0
aF0.0
abag1
(g7
g3
Ntp2657
Rp2658
(lp2659
F0.0
aF0.0
aF0.13966585220486794
ababag1
(g2
g3
Ntp2660
Rp2661
(lp2662
g1
(g7
g3
Ntp2663
Rp2664
(lp2665
F1.6422552735427178
aF0.0
aF0.0
abag1
(g7
g3
Ntp2666
Rp2667
(lp2668
F0.0
aF0.0
aF0.1493474568797256
ababag1
(g2
g3
Ntp2669
Rp2670
(lp2671
g1
(g7
g3
Ntp2672
Rp2673
(lp2674
F1.75971772319708
aF0.0
aF0.0
abag1
(g7
g3
Ntp2675
Rp2676
(lp2677
F0.0
aF0.0
aF0.1327796936037613
ababag1
(g2
g3
Ntp2678
Rp2679
(lp2680
g1
(g7
g3
Ntp2681
Rp2682
(lp2683
F1.8637232016990122
aF0.0
aF0.0
abag1
(g7
g3
Ntp2684
Rp2685
(lp2686
F0.0
aF0.0
aF0.12235845541244401
ababag1
(g2
g3
Ntp2687
Rp2688
(lp2689
g1
(g7
g3
Ntp2690
Rp2691
(lp2692
F1.8285404748677923
aF0.0
aF0.0
abag1
(g7
g3
Ntp2693
Rp2694
(lp2695
F0.0
aF0.0
aF0.14860458599573592
ababag1
(g2
g3
Ntp2696
Rp2697
(lp2698
g1
(g7
g3
Ntp2699
Rp2700
(lp2701
F1.818545119254158
aF0.0
aF0.0
abag1
(g7
g3
Ntp2702
Rp2703
(lp2704
F0.0
aF0.0
aF0.15516432635064004
ababag1
(g2
g3
Ntp2705
Rp2706
(lp2707
g1
(g7
g3
Ntp2708
Rp2709
(lp2710
F1.7569402825782652
aF0.0
aF0.0
abag1
(g7
g3
Ntp2711
Rp2712
(lp2713
F0.0
aF0.0
aF0.1635710796352095
ababag1
(g2
g3
Ntp2714
Rp2715
(lp2716
g1
(g7
g3
Ntp2717
Rp2718
(lp2719
F1.8737915124009474
aF0.0
aF0.0
abag1
(g7
g3
Ntp2720
Rp2721
(lp2722
F0.0
aF0.0
aF0.12433273113611736
ababag1
(g2
g3
Ntp2723
Rp2724
(lp2725
g1
(g7
g3
Ntp2726
Rp2727
(lp2728
F1.878451302311478
aF0.0
aF0.0
abag1
(g7
g3
Ntp2729
Rp2730
(lp2731
F0.0
aF0.0
aF0.11357714374800516
ababag1
(g2
g3
Ntp2732
Rp2733
(lp2734
g1
(g7
g3
Ntp2735
Rp2736
(lp2737
F1.8729428113654853
aF0.0
aF0.0
abag1
(g7
g3
Ntp2738
Rp2739
(lp2740
F0.0
aF0.0
aF0.15504631538819214
ababag1
(g2
g3
Ntp2741
Rp2742
(lp2743
g1
(g7
g3
Ntp2744
Rp2745
(lp2746
F2.0203094169029447
aF0.0
aF0.0
abag1
(g7
g3
Ntp2747
Rp2748
(lp2749
F0.0
aF0.0
aF0.15761735707964838
ababag1
(g2
g3
Ntp2750
Rp2751
(lp2752
g1
(g7
g3
Ntp2753
Rp2754
(lp2755
F2.147906460483431
aF0.0
aF0.0
abag1
(g7
g3
Ntp2756
Rp2757
(lp2758
F0.0
aF0.0
aF0.12683310905266057
ababag1
(g2
g3
Ntp2759
Rp2760
(lp2761
g1
(g7
g3
Ntp2762
Rp2763
(lp2764
F2.2821075088670537
aF0.0
aF0.0
abag1
(g7
g3
Ntp2765
Rp2766
(lp2767
F0.0
aF0.0
aF0.11331664924487378
ababag1
(g2
g3
Ntp2768
Rp2769
(lp2770
g1
(g7
g3
Ntp2771
Rp2772
(lp2773
F2.436389655852354
aF0.0
aF0.0
abag1
(g7
g3
Ntp2774
Rp2775
(lp2776
F0.0
aF0.0
aF0.13550126578019006
ababag1
(g2
g3
Ntp2777
Rp2778
(lp2779
g1
(g7
g3
Ntp2780
Rp2781
(lp2782
F2.60731729911511
aF0.0
aF0.0
abag1
(g7
g3
Ntp2783
Rp2784
(lp2785
F0.0
aF0.0
aF0.1439172511960472
ababag1
(g2
g3
Ntp2786
Rp2787
(lp2788
g1
(g7
g3
Ntp2789
Rp2790
(lp2791
F2.724582671444267
aF0.0
aF0.0
abag1
(g7
g3
Ntp2792
Rp2793
(lp2794
F0.0
aF0.0
aF0.13530123652099016
ababag1
(g2
g3
Ntp2795
Rp2796
(lp2797
g1
(g7
g3
Ntp2798
Rp2799
(lp2800
F2.7611668876576725
aF0.0
aF0.0
abag1
(g7
g3
Ntp2801
Rp2802
(lp2803
F0.0
aF0.0
aF0.09225763826211081
ababag1
(g2
g3
Ntp2804
Rp2805
(lp2806
g1
(g7
g3
Ntp2807
Rp2808
(lp2809
F2.723525326590649
aF0.0
aF0.0
abag1
(g7
g3
Ntp2810
Rp2811
(lp2812
F0.0
aF0.0
aF0.1153890421073811
ababag1
(g2
g3
Ntp2813
Rp2814
(lp2815
g1
(g7
g3
Ntp2816
Rp2817
(lp2818
F2.761355797231534
aF0.0
aF0.0
abag1
(g7
g3
Ntp2819
Rp2820
(lp2821
F0.0
aF0.0
aF0.08591677831065714
ababag1
(g2
g3
Ntp2822
Rp2823
(lp2824
g1
(g7
g3
Ntp2825
Rp2826
(lp2827
F2.766278130289748
aF0.0
aF0.0
abag1
(g7
g3
Ntp2828
Rp2829
(lp2830
F0.0
aF0.0
aF0.07824537082888842
ababag1
(g2
g3
Ntp2831
Rp2832
(lp2833
g1
(g7
g3
Ntp2834
Rp2835
(lp2836
F2.7201477149798294
aF0.0
aF0.0
abag1
(g7
g3
Ntp2837
Rp2838
(lp2839
F0.0
aF0.0
aF0.06524837121393447
ababag1
(g2
g3
Ntp2840
Rp2841
(lp2842
g1
(g7
g3
Ntp2843
Rp2844
(lp2845
F2.729451891123837
aF0.0
aF0.0
abag1
(g7
g3
Ntp2846
Rp2847
(lp2848
F0.0
aF0.0
aF0.06699445293560993
ababag1
(g2
g3
Ntp2849
Rp2850
(lp2851
g1
(g7
g3
Ntp2852
Rp2853
(lp2854
F2.7303198003765687
aF0.0
aF0.0
abag1
(g7
g3
Ntp2855
Rp2856
(lp2857
F0.0
aF0.0
aF0.03143642046309055
ababag1
(g2
g3
Ntp2858
Rp2859
(lp2860
g1
(g7
g3
Ntp2861
Rp2862
(lp2863
F2.7184115138331446
aF0.0
aF0.0
abag1
(g7
g3
Ntp2864
Rp2865
(lp2866
F0.0
aF0.0
aF0.0029354922029398924
ababag1
(g2
g3
Ntp2867
Rp2868
(lp2869
g1
(g7
g3
Ntp2870
Rp2871
(lp2872
F2.724844283613865
aF0.0
aF0.0
abag1
(g7
g3
Ntp2873
Rp2874
(lp2875
F0.0
aF0.0
aF-0.024047122062407843
ababag1
(g2
g3
Ntp2876
Rp2877
(lp2878
g1
(g7
g3
Ntp2879
Rp2880
(lp2881
F2.7544888926937277
aF0.0
aF0.0
abag1
(g7
g3
Ntp2882
Rp2883
(lp2884
F0.0
aF0.0
aF-0.04598260405087324
ababag1
(g2
g3
Ntp2885
Rp2886
(lp2887
g1
(g7
g3
Ntp2888
Rp2889
(lp2890
F2.7198028709889
aF0.0
aF0.0
abag1
(g7
g3
Ntp2891
Rp2892
(lp2893
F0.0
aF0.0
aF-0.058389649353932475
ababag1
(g2
g3
Ntp2894
Rp2895
(lp2896
g1
(g7
g3
Ntp2897
Rp2898
(lp2899
F2.724171586338648
aF0.0
aF0.0
abag1
(g7
g3
Ntp2900
Rp2901
(lp2902
F0.0
aF0.0
aF-0.0755252800659541
ababag1
(g2
g3
Ntp2903
Rp2904
(lp2905
g1
(g7
g3
Ntp2906
Rp2907
(lp2908
F2.725149302206713
aF0.0
aF0.0
abag1
(g7
g3
Ntp2909
Rp2910
(lp2911
F0.0
aF0.0
aF-0.08726295750636623
ababag1
(g2
g3
Ntp2912
Rp2913
(lp2914
g1
(g7
g3
Ntp2915
Rp2916
(lp2917
F2.726243307225562
aF0.0
aF0.0
abag1
(g7
g3
Ntp2918
Rp2919
(lp2920
F0.0
aF0.0
aF-0.10610863720029812
ababag1
(g2
g3
Ntp2921
Rp2922
(lp2923
g1
(g7
g3
Ntp2924
Rp2925
(lp2926
F2.73806023817629
aF0.0
aF0.0
abag1
(g7
g3
Ntp2927
Rp2928
(lp2929
F0.0
aF0.0
aF-0.07678907417335207
ababag1
(g2
g3
Ntp2930
Rp2931
(lp2932
g1
(g7
g3
Ntp2933
Rp2934
(lp2935
F2.69952032089287
aF0.0
aF0.0
abag1
(g7
g3
Ntp2936
Rp2937
(lp2938
F0.0
aF0.0
aF-0.09321963958953233
ababag1
(g2
g3
Ntp2939
Rp2940
(lp2941
g1
(g7
g3
Ntp2942
Rp2943
(lp2944
F2.7273628469616287
aF0.0
aF0.0
abag1
(g7
g3
Ntp2945
Rp2946
(lp2947
F0.0
aF0.0
aF-0.08639400922955189
ababag1
(g2
g3
Ntp2948
Rp2949
(lp2950
g1
(g7
g3
Ntp2951
Rp2952
(lp2953
F2.77
aF0.0
aF0.0
abag1
(g7
g3
Ntp2954
Rp2955
(lp2956
F0.0
aF0.0
aF-0.07511298661411386
ababag1
(g2
g3
Ntp2957
Rp2958
(lp2959
g1
(g7
g3
Ntp2960
Rp2961
(lp2962
F2.722527765080081
aF0.0
aF0.0
abag1
(g7
g3
Ntp2963
Rp2964
(lp2965
F0.0
aF0.0
aF-0.007260154655441365
ababag1
(g2
g3
Ntp2966
Rp2967
(lp2968
g1
(g7
g3
Ntp2969
Rp2970
(lp2971
F2.7277640001174706
aF0.0
aF0.0
abag1
(g7
g3
Ntp2972
Rp2973
(lp2974
F0.0
aF0.0
aF0.011564736775598113
ababag1
(g2
g3
Ntp2975
Rp2976
(lp2977
g1
(g7
g3
Ntp2978
Rp2979
(lp2980
F2.7268779171576294
aF0.0
aF0.0
abag1
(g7
g3
Ntp2981
Rp2982
(lp2983
F0.0
aF0.0
aF0.025140960535135835
ababag1
(g2
g3
Ntp2984
Rp2985
(lp2986
g1
(g7
g3
Ntp2987
Rp2988
(lp2989
F2.753278359009119
aF0.0
aF0.0
abag1
(g7
g3
Ntp2990
Rp2991
(lp2992
F0.0
aF0.0
aF0.06017988173161287
ababag1
(g2
g3
Ntp2993
Rp2994
(lp2995
g1
(g7
g3
Ntp2996
Rp2997
(lp2998
F2.719877050448242
aF0.0
aF0.0
abag1
(g7
g3
Ntp2999
Rp3000
(lp3001
F0.0
aF0.0
aF0.0781695056755196
ababag1
(g2
g3
Ntp3002
Rp3003
(lp3004
g1
(g7
g3
Ntp3005
Rp3006
(lp3007
F2.723554395404617
aF0.0
aF0.0
abag1
(g7
g3
Ntp3008
Rp3009
(lp3010
F0.0
aF0.0
aF0.08122411254415159
ababag1
(g2
g3
Ntp3011
Rp3012
(lp3013
g1
(g7
g3
Ntp3014
Rp3015
(lp3016
F2.7596561690236907
aF0.0
aF0.0
abag1
(g7
g3
Ntp3017
Rp3018
(lp3019
F0.0
aF0.0
aF0.06754533807109839
ababag1
(g2
g3
Ntp3020
Rp3021
(lp3022
g1
(g7
g3
Ntp3023
Rp3024
(lp3025
F2.7486023876150107
aF0.0
aF0.0
abag1
(g7
g3
Ntp3026
Rp3027
(lp3028
F0.0
aF0.0
aF0.0413888450773419
ababag1
(g2
g3
Ntp3029
Rp3030
(lp3031
g1
(g7
g3
Ntp3032
Rp3033
(lp3034
F2.7197285311018766
aF0.0
aF0.0
abag1
(g7
g3
Ntp3035
Rp3036
(lp3037
F0.0
aF0.0
aF-0.036187762068584116
ababag1
(g2
g3
Ntp3038
Rp3039
(lp3040
g1
(g7
g3
Ntp3041
Rp3042
(lp3043
F2.7279259151317823
aF0.0
aF0.0
abag1
(g7
g3
Ntp3044
Rp3045
(lp3046
F0.0
aF0.0
aF-0.08432323041575625
ababag1
(g2
g3
Ntp3047
Rp3048
(lp3049
g1
(g7
g3
Ntp3050
Rp3051
(lp3052
F2.7467685335712217
aF0.0
aF0.0
abag1
(g7
g3
Ntp3053
Rp3054
(lp3055
F0.0
aF0.0
aF-0.09228382805820175
ababag1
(g2
g3
Ntp3056
Rp3057
(lp3058
g1
(g7
g3
Ntp3059
Rp3060
(lp3061
F2.733121495799239
aF0.0
aF0.0
abag1
(g7
g3
Ntp3062
Rp3063
(lp3064
F0.0
aF0.0
aF-0.10060641535788951
ababag1
(g2
g3
Ntp3065
Rp3066
(lp3067
g1
(g7
g3
Ntp3068
Rp3069
(lp3070
F2.730327680915497
aF0.0
aF0.0
abag1
(g7
g3
Ntp3071
Rp3072
(lp3073
F0.0
aF0.0
aF-0.09703990442448478
ababag1
(g2
g3
Ntp3074
Rp3075
(lp3076
g1
(g7
g3
Ntp3077
Rp3078
(lp3079
F2.7200604389147887
aF0.0
aF0.0
abag1
(g7
g3
Ntp3080
Rp3081
(lp3082
F0.0
aF0.0
aF-0.04597851381824258
ababag1
(g2
g3
Ntp3083
Rp3084
(lp3085
g1
(g7
g3
Ntp3086
Rp3087
(lp3088
F2.7201060559959664
aF0.0
aF0.0
abag1
(g7
g3
Ntp3089
Rp3090
(lp3091
F0.0
aF0.0
aF0.09062082104053547
ababag1
(g2
g3
Ntp3092
Rp3093
(lp3094
g1
(g7
g3
Ntp3095
Rp3096
(lp3097
F2.719726087007891
aF0.0
aF0.0
abag1
(g7
g3
Ntp3098
Rp3099
(lp3100
F0.0
aF0.0
aF0.10366614873661158
ababag1
(g2
g3
Ntp3101
Rp3102
(lp3103
g1
(g7
g3
Ntp3104
Rp3105
(lp3106
F2.729646936860744
aF0.0
aF0.0
abag1
(g7
g3
Ntp3107
Rp3108
(lp3109
F0.0
aF0.0
aF0.06738423386850795
ababag1
(g2
g3
Ntp3110
Rp3111
(lp3112
g1
(g7
g3
Ntp3113
Rp3114
(lp3115
F2.7281305503216173
aF0.0
aF0.0
abag1
(g7
g3
Ntp3116
Rp3117
(lp3118
F0.0
aF0.0
aF0.05452741541408212
ababag1
(g2
g3
Ntp3119
Rp3120
(lp3121
g1
(g7
g3
Ntp3122
Rp3123
(lp3124
F2.729080379569946
aF0.0
aF0.0
abag1
(g7
g3
Ntp3125
Rp3126
(lp3127
F0.0
aF0.0
aF0.03747478475959286
ababag1
(g2
g3
Ntp3128
Rp3129
(lp3130
g1
(g7
g3
Ntp3131
Rp3132
(lp3133
F2.72949211495795
aF0.0
aF0.0
abag1
(g7
g3
Ntp3134
Rp3135
(lp3136
F0.0
aF0.0
aF0.03309900920022129
ababag1
(g2
g3
Ntp3137
Rp3138
(lp3139
g1
(g7
g3
Ntp3140
Rp3141
(lp3142
F2.75526433621116
aF0.0
aF0.0
abag1
(g7
g3
Ntp3143
Rp3144
(lp3145
F0.0
aF0.0
aF0.008352373385184006
ababag1
(g2
g3
Ntp3146
Rp3147
(lp3148
g1
(g7
g3
Ntp3149
Rp3150
(lp3151
F2.7259504298369848
aF0.0
aF0.0
abag1
(g7
g3
Ntp3152
Rp3153
(lp3154
F0.0
aF0.0
aF-0.002815180770401231
ababag1
(g2
g3
Ntp3155
Rp3156
(lp3157
g1
(g7
g3
Ntp3158
Rp3159
(lp3160
F2.7297201764359653
aF0.0
aF0.0
abag1
(g7
g3
Ntp3161
Rp3162
(lp3163
F0.0
aF0.0
aF-0.005250372589317859
ababag1
(g2
g3
Ntp3164
Rp3165
(lp3166
g1
(g7
g3
Ntp3167
Rp3168
(lp3169
F2.7229127876514494
aF0.0
aF0.0
abag1
(g7
g3
Ntp3170
Rp3171
(lp3172
F0.0
aF0.0
aF-0.017014864423711615
ababag1
(g2
g3
Ntp3173
Rp3174
(lp3175
g1
(g7
g3
Ntp3176
Rp3177
(lp3178
F2.719913379301499
aF0.0
aF0.0
abag1
(g7
g3
Ntp3179
Rp3180
(lp3181
F0.0
aF0.0
aF-0.06370064430578525
ababag1
(g2
g3
Ntp3182
Rp3183
(lp3184
g1
(g7
g3
Ntp3185
Rp3186
(lp3187
F2.7198057456931988
aF0.0
aF0.0
abag1
(g7
g3
Ntp3188
Rp3189
(lp3190
F0.0
aF0.0
aF-0.06854369736649712
ababag1
(g2
g3
Ntp3191
Rp3192
(lp3193
g1
(g7
g3
Ntp3194
Rp3195
(lp3196
F2.7286167013048965
aF0.0
aF0.0
abag1
(g7
g3
Ntp3197
Rp3198
(lp3199
F0.0
aF0.0
aF-0.039323863884125426
ababag1
(g2
g3
Ntp3200
Rp3201
(lp3202
g1
(g7
g3
Ntp3203
Rp3204
(lp3205
F2.7265520644793537
aF0.0
aF0.0
abag1
(g7
g3
Ntp3206
Rp3207
(lp3208
F0.0
aF0.0
aF-0.026870385392531393
ababag1
(g2
g3
Ntp3209
Rp3210
(lp3211
g1
(g7
g3
Ntp3212
Rp3213
(lp3214
F2.7229166115828303
aF0.0
aF0.0
abag1
(g7
g3
Ntp3215
Rp3216
(lp3217
F0.0
aF0.0
aF-0.06715842249766893
ababag1
(g2
g3
Ntp3218
Rp3219
(lp3220
g1
(g7
g3
Ntp3221
Rp3222
(lp3223
F2.7207629272895444
aF0.0
aF0.0
abag1
(g7
g3
Ntp3224
Rp3225
(lp3226
F0.0
aF0.0
aF-0.02717875165671393
ababag1
(g2
g3
Ntp3227
Rp3228
(lp3229
g1
(g7
g3
Ntp3230
Rp3231
(lp3232
F2.719568273503385
aF0.0
aF0.0
abag1
(g7
g3
Ntp3233
Rp3234
(lp3235
F0.0
aF0.0
aF-0.01644417916800821
ababag1
(g2
g3
Ntp3236
Rp3237
(lp3238
g1
(g7
g3
Ntp3239
Rp3240
(lp3241
F2.7193773003381847
aF0.0
aF0.0
abag1
(g7
g3
Ntp3242
Rp3243
(lp3244
F0.0
aF0.0
aF-0.014990231518964031
ababag1
(g2
g3
Ntp3245
Rp3246
(lp3247
g1
(g7
g3
Ntp3248
Rp3249
(lp3250
F2.723521836951068
aF0.0
aF0.0
abag1
(g7
g3
Ntp3251
Rp3252
(lp3253
F0.0
aF0.0
aF-0.05267655147689966
ababag1
(g2
g3
Ntp3254
Rp3255
(lp3256
g1
(g7
g3
Ntp3257
Rp3258
(lp3259
F2.7218564945682946
aF0.0
aF0.0
abag1
(g7
g3
Ntp3260
Rp3261
(lp3262
F0.0
aF0.0
aF-0.024264555981984137
ababag1
(g2
g3
Ntp3263
Rp3264
(lp3265
g1
(g7
g3
Ntp3266
Rp3267
(lp3268
F2.7193649008245897
aF0.0
aF0.0
abag1
(g7
g3
Ntp3269
Rp3270
(lp3271
F0.0
aF0.0
aF-0.021690946719714
ababag1
(g2
g3
Ntp3272
Rp3273
(lp3274
g1
(g7
g3
Ntp3275
Rp3276
(lp3277
F2.7219687591579316
aF0.0
aF0.0
abag1
(g7
g3
Ntp3278
Rp3279
(lp3280
F0.0
aF0.0
aF-0.029204871547274205
ababag1
(g2
g3
Ntp3281
Rp3282
(lp3283
g1
(g7
g3
Ntp3284
Rp3285
(lp3286
F2.7248064680661073
aF0.0
aF0.0
abag1
(g7
g3
Ntp3287
Rp3288
(lp3289
F0.0
aF0.0
aF-0.0059651422604451556
ababag1
(g2
g3
Ntp3290
Rp3291
(lp3292
g1
(g7
g3
Ntp3293
Rp3294
(lp3295
F2.6724536124962057
aF0.0
aF0.0
abag1
(g7
g3
Ntp3296
Rp3297
(lp3298
F0.0
aF0.0
aF-0.0062440405552558614
ababag1
(g2
g3
Ntp3299
Rp3300
(lp3301
g1
(g7
g3
Ntp3302
Rp3303
(lp3304
F2.5730584021863803
aF0.0
aF0.0
abag1
(g7
g3
Ntp3305
Rp3306
(lp3307
F0.0
aF0.0
aF-0.00771027415736125
ababag1
(g2
g3
Ntp3308
Rp3309
(lp3310
g1
(g7
g3
Ntp3311
Rp3312
(lp3313
F2.4549699797715463
aF0.0
aF0.0
abag1
(g7
g3
Ntp3314
Rp3315
(lp3316
F0.0
aF0.0
aF-0.004505225967222795
ababag1
(g2
g3
Ntp3317
Rp3318
(lp3319
g1
(g7
g3
Ntp3320
Rp3321
(lp3322
F2.3177629436159766
aF0.0
aF0.0
abag1
(g7
g3
Ntp3323
Rp3324
(lp3325
F0.0
aF0.0
aF-0.003327054383322637
ababag1
(g2
g3
Ntp3326
Rp3327
(lp3328
g1
(g7
g3
Ntp3329
Rp3330
(lp3331
F2.197487433421603
aF0.0
aF0.0
abag1
(g7
g3
Ntp3332
Rp3333
(lp3334
F0.0
aF0.0
aF-0.0022762035586150315
ababag1
(g2
g3
Ntp3335
Rp3336
(lp3337
g1
(g7
g3
Ntp3338
Rp3339
(lp3340
F2.1322652277392717
aF0.0
aF0.0
abag1
(g7
g3
Ntp3341
Rp3342
(lp3343
F0.0
aF0.0
aF-0.0027602678674664297
ababag1
(g2
g3
Ntp3344
Rp3345
(lp3346
g1
(g7
g3
Ntp3347
Rp3348
(lp3349
F2.045689977372317
aF0.0
aF0.0
abag1
(g7
g3
Ntp3350
Rp3351
(lp3352
F0.0
aF0.0
aF-0.004342733646306774
ababag1
(g2
g3
Ntp3353
Rp3354
(lp3355
g1
(g7
g3
Ntp3356
Rp3357
(lp3358
F1.9109726676582288
aF0.0
aF0.0
abag1
(g7
g3
Ntp3359
Rp3360
(lp3361
F0.0
aF0.0
aF-0.0039788881403972085
ababag1
(g2
g3
Ntp3362
Rp3363
(lp3364
g1
(g7
g3
Ntp3365
Rp3366
(lp3367
F1.7879539349120634
aF0.0
aF0.0
abag1
(g7
g3
Ntp3368
Rp3369
(lp3370
F0.0
aF0.0
aF-0.006680622448186468
ababag1
(g2
g3
Ntp3371
Rp3372
(lp3373
g1
(g7
g3
Ntp3374
Rp3375
(lp3376
F1.666140140427065
aF0.0
aF0.0
abag1
(g7
g3
Ntp3377
Rp3378
(lp3379
F0.0
aF0.0
aF-0.0067573744880349024
ababag1
(g2
g3
Ntp3380
Rp3381
(lp3382
g1
(g7
g3
Ntp3383
Rp3384
(lp3385
F1.5449144997683146
aF0.0
aF0.0
abag1
(g7
g3
Ntp3386
Rp3387
(lp3388
F0.0
aF0.0
aF-0.009965864361270229
ababag1
(g2
g3
Ntp3389
Rp3390
(lp3391
g1
(g7
g3
Ntp3392
Rp3393
(lp3394
F1.4311857076837937
aF0.0
aF0.0
abag1
(g7
g3
Ntp3395
Rp3396
(lp3397
F0.0
aF0.0
aF-0.011347780977281622
ababag1
(g2
g3
Ntp3398
Rp3399
(lp3400
g1
(g7
g3
Ntp3401
Rp3402
(lp3403
F1.3151200363492486
aF0.0
aF0.0
abag1
(g7
g3
Ntp3404
Rp3405
(lp3406
F0.0
aF0.0
aF-0.009750495681571847
ababag1
(g2
g3
Ntp3407
Rp3408
(lp3409
g1
(g7
g3
Ntp3410
Rp3411
(lp3412
F1.1959663531393343
aF0.0
aF0.0
abag1
(g7
g3
Ntp3413
Rp3414
(lp3415
F0.0
aF0.0
aF-0.005765094451244819
ababag1
(g2
g3
Ntp3416
Rp3417
(lp3418
g1
(g7
g3
Ntp3419
Rp3420
(lp3421
F1.093361725359449
aF0.0
aF0.0
abag1
(g7
g3
Ntp3422
Rp3423
(lp3424
F0.0
aF0.0
aF-0.022132839816076205
ababag1
(g2
g3
Ntp3425
Rp3426
(lp3427
g1
(g7
g3
Ntp3428
Rp3429
(lp3430
F0.9695960016968608
aF0.0
aF0.0
abag1
(g7
g3
Ntp3431
Rp3432
(lp3433
F0.0
aF0.0
aF0.08252804575470249
ababag1
(g2
g3
Ntp3434
Rp3435
(lp3436
g1
(g7
g3
Ntp3437
Rp3438
(lp3439
F0.8529815271066222
aF0.0
aF0.0
abag1
(g7
g3
Ntp3440
Rp3441
(lp3442
F0.0
aF0.0
aF0.10137538183341166
ababag1
(g2
g3
Ntp3443
Rp3444
(lp3445
g1
(g7
g3
Ntp3446
Rp3447
(lp3448
F0.0
aF0.0
aF0.0
abag1
(g7
g3
Ntp3449
Rp3450
(lp3451
F0.0
aF0.0
aF0.0
ababag1
(g2
g3
Ntp3452
Rp3453
(lp3454
g1
(g7
g3
Ntp3455
Rp3456
(lp3457
F0.0
aF0.0
aF0.0
abag1
(g7
g3
Ntp3458
Rp3459
(lp3460
F0.0
aF0.0
aF0.0
ababa.